Component: ARM Compiler 5.06 update 7 (build 960) Tool: armlink [4d3601]

==============================================================================

Section Cross References

    startup_stm32f427xx.o(STACK) refers (Special) to heapauxi.o(.text) for __use_two_region_memory
    startup_stm32f427xx.o(HEAP) refers (Special) to heapauxi.o(.text) for __use_two_region_memory
    startup_stm32f427xx.o(RESET) refers (Special) to heapauxi.o(.text) for __use_two_region_memory
    startup_stm32f427xx.o(RESET) refers to startup_stm32f427xx.o(STACK) for __initial_sp
    startup_stm32f427xx.o(RESET) refers to startup_stm32f427xx.o(.text) for Reset_Handler
    startup_stm32f427xx.o(RESET) refers to stm32f4xx_it.o(i.NMI_Handler) for NMI_Handler
    startup_stm32f427xx.o(RESET) refers to stm32f4xx_it.o(i.HardFault_Handler) for HardFault_Handler
    startup_stm32f427xx.o(RESET) refers to stm32f4xx_it.o(i.MemManage_Handler) for MemManage_Handler
    startup_stm32f427xx.o(RESET) refers to stm32f4xx_it.o(i.BusFault_Handler) for BusFault_Handler
    startup_stm32f427xx.o(RESET) refers to stm32f4xx_it.o(i.UsageFault_Handler) for UsageFault_Handler
    startup_stm32f427xx.o(RESET) refers to stm32f4xx_it.o(i.SVC_Handler) for SVC_Handler
    startup_stm32f427xx.o(RESET) refers to stm32f4xx_it.o(i.DebugMon_Handler) for DebugMon_Handler
    startup_stm32f427xx.o(RESET) refers to stm32f4xx_it.o(i.PendSV_Handler) for PendSV_Handler
    startup_stm32f427xx.o(RESET) refers to stm32f4xx_it.o(i.SysTick_Handler) for SysTick_Handler
    startup_stm32f427xx.o(RESET) refers to can1.o(i.CAN1_RX0_IRQHandler) for CAN1_RX0_IRQHandler
    startup_stm32f427xx.o(RESET) refers to timer.o(i.TIM4_IRQHandler) for TIM4_IRQHandler
    startup_stm32f427xx.o(RESET) refers to usart.o(i.USART3_IRQHandler) for USART3_IRQHandler
    startup_stm32f427xx.o(RESET) refers to can2.o(i.CAN2_RX0_IRQHandler) for CAN2_RX0_IRQHandler
    startup_stm32f427xx.o(RESET) refers to remotecontrol.o(i.DMA2_Stream5_IRQHandler) for DMA2_Stream5_IRQHandler
    startup_stm32f427xx.o(RESET) refers to comm_umpire.o(i.DMA2_Stream7_IRQHandler) for DMA2_Stream7_IRQHandler
    startup_stm32f427xx.o(RESET) refers to comm_umpire.o(i.USART6_IRQHandler) for USART6_IRQHandler
    startup_stm32f427xx.o(.text) refers (Special) to heapauxi.o(.text) for __use_two_region_memory
    startup_stm32f427xx.o(.text) refers to system_stm32f4xx.o(i.SystemInit) for SystemInit
    startup_stm32f427xx.o(.text) refers to __main.o(!!!main) for __main
    startup_stm32f427xx.o(.text) refers to startup_stm32f427xx.o(HEAP) for Heap_Mem
    startup_stm32f427xx.o(.text) refers to startup_stm32f427xx.o(STACK) for Stack_Mem
    system_stm32f4xx.o(i.SystemCoreClockUpdate) refers to system_stm32f4xx.o(.data) for SystemCoreClock
    system_stm32f4xx.o(i.SystemInit) refers to system_stm32f4xx.o(i.SetSysClock) for SetSysClock
    stm32f4xx_adc.o(i.ADC_DeInit) refers to stm32f4xx_rcc.o(i.RCC_APB2PeriphResetCmd) for RCC_APB2PeriphResetCmd
    stm32f4xx_can.o(i.CAN_DeInit) refers to stm32f4xx_rcc.o(i.RCC_APB1PeriphResetCmd) for RCC_APB1PeriphResetCmd
    stm32f4xx_can.o(i.CAN_GetITStatus) refers to stm32f4xx_can.o(i.CheckITStatus) for CheckITStatus
    stm32f4xx_flash.o(i.FLASH_EraseAllBank1Sectors) refers to stm32f4xx_flash.o(i.FLASH_WaitForLastOperation) for FLASH_WaitForLastOperation
    stm32f4xx_flash.o(i.FLASH_EraseAllBank2Sectors) refers to stm32f4xx_flash.o(i.FLASH_WaitForLastOperation) for FLASH_WaitForLastOperation
    stm32f4xx_flash.o(i.FLASH_EraseAllSectors) refers to stm32f4xx_flash.o(i.FLASH_WaitForLastOperation) for FLASH_WaitForLastOperation
    stm32f4xx_flash.o(i.FLASH_EraseSector) refers to stm32f4xx_flash.o(i.FLASH_WaitForLastOperation) for FLASH_WaitForLastOperation
    stm32f4xx_flash.o(i.FLASH_OB_Launch) refers to stm32f4xx_flash.o(i.FLASH_WaitForLastOperation) for FLASH_WaitForLastOperation
    stm32f4xx_flash.o(i.FLASH_OB_PCROP1Config) refers to stm32f4xx_flash.o(i.FLASH_WaitForLastOperation) for FLASH_WaitForLastOperation
    stm32f4xx_flash.o(i.FLASH_OB_PCROPConfig) refers to stm32f4xx_flash.o(i.FLASH_WaitForLastOperation) for FLASH_WaitForLastOperation
    stm32f4xx_flash.o(i.FLASH_OB_RDPConfig) refers to stm32f4xx_flash.o(i.FLASH_WaitForLastOperation) for FLASH_WaitForLastOperation
    stm32f4xx_flash.o(i.FLASH_OB_UserConfig) refers to stm32f4xx_flash.o(i.FLASH_WaitForLastOperation) for FLASH_WaitForLastOperation
    stm32f4xx_flash.o(i.FLASH_OB_WRP1Config) refers to stm32f4xx_flash.o(i.FLASH_WaitForLastOperation) for FLASH_WaitForLastOperation
    stm32f4xx_flash.o(i.FLASH_OB_WRPConfig) refers to stm32f4xx_flash.o(i.FLASH_WaitForLastOperation) for FLASH_WaitForLastOperation
    stm32f4xx_flash.o(i.FLASH_ProgramByte) refers to stm32f4xx_flash.o(i.FLASH_WaitForLastOperation) for FLASH_WaitForLastOperation
    stm32f4xx_flash.o(i.FLASH_ProgramDoubleWord) refers to stm32f4xx_flash.o(i.FLASH_WaitForLastOperation) for FLASH_WaitForLastOperation
    stm32f4xx_flash.o(i.FLASH_ProgramHalfWord) refers to stm32f4xx_flash.o(i.FLASH_WaitForLastOperation) for FLASH_WaitForLastOperation
    stm32f4xx_flash.o(i.FLASH_ProgramWord) refers to stm32f4xx_flash.o(i.FLASH_WaitForLastOperation) for FLASH_WaitForLastOperation
    stm32f4xx_flash.o(i.FLASH_WaitForLastOperation) refers to stm32f4xx_flash.o(i.FLASH_GetStatus) for FLASH_GetStatus
    stm32f4xx_gpio.o(i.GPIO_DeInit) refers to stm32f4xx_rcc.o(i.RCC_AHB1PeriphResetCmd) for RCC_AHB1PeriphResetCmd
    stm32f4xx_i2c.o(i.I2C_DeInit) refers to stm32f4xx_rcc.o(i.RCC_APB1PeriphResetCmd) for RCC_APB1PeriphResetCmd
    stm32f4xx_i2c.o(i.I2C_Init) refers to stm32f4xx_rcc.o(i.RCC_GetClocksFreq) for RCC_GetClocksFreq
    stm32f4xx_pwr.o(i.PWR_DeInit) refers to stm32f4xx_rcc.o(i.RCC_APB1PeriphResetCmd) for RCC_APB1PeriphResetCmd
    stm32f4xx_rcc.o(i.RCC_GetClocksFreq) refers to stm32f4xx_rcc.o(.data) for APBAHBPrescTable
    stm32f4xx_rcc.o(i.RCC_WaitForHSEStartUp) refers to stm32f4xx_rcc.o(i.RCC_GetFlagStatus) for RCC_GetFlagStatus
    stm32f4xx_rng.o(i.RNG_DeInit) refers to stm32f4xx_rcc.o(i.RCC_AHB2PeriphResetCmd) for RCC_AHB2PeriphResetCmd
    stm32f4xx_sdio.o(i.SDIO_DeInit) refers to stm32f4xx_rcc.o(i.RCC_APB2PeriphResetCmd) for RCC_APB2PeriphResetCmd
    stm32f4xx_spi.o(i.SPI_I2S_DeInit) refers to stm32f4xx_rcc.o(i.RCC_APB2PeriphResetCmd) for RCC_APB2PeriphResetCmd
    stm32f4xx_spi.o(i.SPI_I2S_DeInit) refers to stm32f4xx_rcc.o(i.RCC_APB1PeriphResetCmd) for RCC_APB1PeriphResetCmd
    stm32f4xx_syscfg.o(i.SYSCFG_DeInit) refers to stm32f4xx_rcc.o(i.RCC_APB2PeriphResetCmd) for RCC_APB2PeriphResetCmd
    stm32f4xx_tim.o(i.TIM_DeInit) refers to stm32f4xx_rcc.o(i.RCC_APB2PeriphResetCmd) for RCC_APB2PeriphResetCmd
    stm32f4xx_tim.o(i.TIM_DeInit) refers to stm32f4xx_rcc.o(i.RCC_APB1PeriphResetCmd) for RCC_APB1PeriphResetCmd
    stm32f4xx_tim.o(i.TIM_ETRClockMode1Config) refers to stm32f4xx_tim.o(i.TIM_ETRConfig) for TIM_ETRConfig
    stm32f4xx_tim.o(i.TIM_ETRClockMode2Config) refers to stm32f4xx_tim.o(i.TIM_ETRConfig) for TIM_ETRConfig
    stm32f4xx_tim.o(i.TIM_ICInit) refers to stm32f4xx_tim.o(i.TI1_Config) for TI1_Config
    stm32f4xx_tim.o(i.TIM_ICInit) refers to stm32f4xx_tim.o(i.TIM_SetIC1Prescaler) for TIM_SetIC1Prescaler
    stm32f4xx_tim.o(i.TIM_ICInit) refers to stm32f4xx_tim.o(i.TI2_Config) for TI2_Config
    stm32f4xx_tim.o(i.TIM_ICInit) refers to stm32f4xx_tim.o(i.TIM_SetIC2Prescaler) for TIM_SetIC2Prescaler
    stm32f4xx_tim.o(i.TIM_ICInit) refers to stm32f4xx_tim.o(i.TI3_Config) for TI3_Config
    stm32f4xx_tim.o(i.TIM_ICInit) refers to stm32f4xx_tim.o(i.TIM_SetIC3Prescaler) for TIM_SetIC3Prescaler
    stm32f4xx_tim.o(i.TIM_ICInit) refers to stm32f4xx_tim.o(i.TI4_Config) for TI4_Config
    stm32f4xx_tim.o(i.TIM_ICInit) refers to stm32f4xx_tim.o(i.TIM_SetIC4Prescaler) for TIM_SetIC4Prescaler
    stm32f4xx_tim.o(i.TIM_ITRxExternalClockConfig) refers to stm32f4xx_tim.o(i.TIM_SelectInputTrigger) for TIM_SelectInputTrigger
    stm32f4xx_tim.o(i.TIM_PWMIConfig) refers to stm32f4xx_tim.o(i.TI1_Config) for TI1_Config
    stm32f4xx_tim.o(i.TIM_PWMIConfig) refers to stm32f4xx_tim.o(i.TIM_SetIC1Prescaler) for TIM_SetIC1Prescaler
    stm32f4xx_tim.o(i.TIM_PWMIConfig) refers to stm32f4xx_tim.o(i.TI2_Config) for TI2_Config
    stm32f4xx_tim.o(i.TIM_PWMIConfig) refers to stm32f4xx_tim.o(i.TIM_SetIC2Prescaler) for TIM_SetIC2Prescaler
    stm32f4xx_tim.o(i.TIM_TIxExternalClockConfig) refers to stm32f4xx_tim.o(i.TI2_Config) for TI2_Config
    stm32f4xx_tim.o(i.TIM_TIxExternalClockConfig) refers to stm32f4xx_tim.o(i.TI1_Config) for TI1_Config
    stm32f4xx_tim.o(i.TIM_TIxExternalClockConfig) refers to stm32f4xx_tim.o(i.TIM_SelectInputTrigger) for TIM_SelectInputTrigger
    stm32f4xx_usart.o(i.USART_DeInit) refers to stm32f4xx_rcc.o(i.RCC_APB2PeriphResetCmd) for RCC_APB2PeriphResetCmd
    stm32f4xx_usart.o(i.USART_DeInit) refers to stm32f4xx_rcc.o(i.RCC_APB1PeriphResetCmd) for RCC_APB1PeriphResetCmd
    stm32f4xx_usart.o(i.USART_Init) refers to stm32f4xx_rcc.o(i.RCC_GetClocksFreq) for RCC_GetClocksFreq
    delay.o(i.delay_init) refers to misc.o(i.SysTick_CLKSourceConfig) for SysTick_CLKSourceConfig
    delay.o(i.delay_init) refers to delay.o(.data) for fac_us
    delay.o(i.delay_ms) refers to stm32f4xx_it.o(i.micros) for micros
    delay.o(i.delay_us) refers to stm32f4xx_it.o(i.micros) for micros
    usart.o(.rev16_text) refers (Special) to use_no_semi_2.o(.text) for __use_no_semihosting
    usart.o(.revsh_text) refers (Special) to use_no_semi_2.o(.text) for __use_no_semihosting
    usart.o(i.USART3_IRQHandler) refers (Special) to use_no_semi_2.o(.text) for __use_no_semihosting
    usart.o(i.USART3_IRQHandler) refers to stm32f4xx_usart.o(i.USART_GetITStatus) for USART_GetITStatus
    usart.o(i.USART3_IRQHandler) refers to stm32f4xx_usart.o(i.USART_ReceiveData) for USART_ReceiveData
    usart.o(i.USART3_IRQHandler) refers to usart.o(.data) for USART_RX_STA
    usart.o(i.USART3_IRQHandler) refers to usart.o(.bss) for USART_RX_BUF
    usart.o(i._sys_exit) refers (Special) to use_no_semi_2.o(.text) for __use_no_semihosting
    usart.o(i.fputc) refers (Special) to use_no_semi_2.o(.text) for __use_no_semihosting
    usart.o(i.usart_init) refers (Special) to use_no_semi_2.o(.text) for __use_no_semihosting
    usart.o(i.usart_init) refers to stm32f4xx_rcc.o(i.RCC_AHB1PeriphClockCmd) for RCC_AHB1PeriphClockCmd
    usart.o(i.usart_init) refers to stm32f4xx_rcc.o(i.RCC_APB1PeriphClockCmd) for RCC_APB1PeriphClockCmd
    usart.o(i.usart_init) refers to stm32f4xx_gpio.o(i.GPIO_PinAFConfig) for GPIO_PinAFConfig
    usart.o(i.usart_init) refers to stm32f4xx_gpio.o(i.GPIO_Init) for GPIO_Init
    usart.o(i.usart_init) refers to stm32f4xx_usart.o(i.USART_Init) for USART_Init
    usart.o(i.usart_init) refers to stm32f4xx_usart.o(i.USART_Cmd) for USART_Cmd
    usart.o(i.usart_init) refers to stm32f4xx_usart.o(i.USART_ITConfig) for USART_ITConfig
    usart.o(i.usart_init) refers to misc.o(i.NVIC_Init) for NVIC_Init
    usart.o(.bss) refers (Special) to use_no_semi_2.o(.text) for __use_no_semihosting
    usart.o(.data) refers (Special) to use_no_semi_2.o(.text) for __use_no_semihosting
    buzzer.o(i.Buzzer_Task) refers to buzzer.o(.data) for buzzer
    can1.o(i.Angle_deal) refers to can1.o(.bss) for motor_data
    can1.o(i.CAN1_Configuration) refers to stm32f4xx_rcc.o(i.RCC_AHB1PeriphClockCmd) for RCC_AHB1PeriphClockCmd
    can1.o(i.CAN1_Configuration) refers to stm32f4xx_rcc.o(i.RCC_APB1PeriphClockCmd) for RCC_APB1PeriphClockCmd
    can1.o(i.CAN1_Configuration) refers to stm32f4xx_gpio.o(i.GPIO_PinAFConfig) for GPIO_PinAFConfig
    can1.o(i.CAN1_Configuration) refers to stm32f4xx_gpio.o(i.GPIO_Init) for GPIO_Init
    can1.o(i.CAN1_Configuration) refers to misc.o(i.NVIC_Init) for NVIC_Init
    can1.o(i.CAN1_Configuration) refers to stm32f4xx_can.o(i.CAN_DeInit) for CAN_DeInit
    can1.o(i.CAN1_Configuration) refers to stm32f4xx_can.o(i.CAN_StructInit) for CAN_StructInit
    can1.o(i.CAN1_Configuration) refers to stm32f4xx_can.o(i.CAN_Init) for CAN_Init
    can1.o(i.CAN1_Configuration) refers to stm32f4xx_can.o(i.CAN_FilterInit) for CAN_FilterInit
    can1.o(i.CAN1_Configuration) refers to stm32f4xx_can.o(i.CAN_ITConfig) for CAN_ITConfig
    can1.o(i.CAN1_RX0_IRQHandler) refers to stm32f4xx_can.o(i.CAN_GetITStatus) for CAN_GetITStatus
    can1.o(i.CAN1_RX0_IRQHandler) refers to stm32f4xx_can.o(i.CAN_ClearITPendingBit) for CAN_ClearITPendingBit
    can1.o(i.CAN1_RX0_IRQHandler) refers to stm32f4xx_can.o(i.CAN_ClearFlag) for CAN_ClearFlag
    can1.o(i.CAN1_RX0_IRQHandler) refers to stm32f4xx_can.o(i.CAN_Receive) for CAN_Receive
    can1.o(i.CAN1_RX0_IRQHandler) refers to can1.o(i.kalman) for kalman
    can1.o(i.CAN1_RX0_IRQHandler) refers to can1.o(i.Angle_deal) for Angle_deal
    can1.o(i.CAN1_RX0_IRQHandler) refers to can1.o(.bss) for motor_data
    can1.o(i.CAN1_RX0_IRQHandler) refers to can1.o(.data) for cnt
    can1.o(i.CAN1_SendCommand_chassis) refers to stm32f4xx_can.o(i.CAN_Transmit) for CAN_Transmit
    can1.o(i.CAN1_SendCommand_chassis) refers to stm32f4xx_can.o(i.CAN_TransmitStatus) for CAN_TransmitStatus
    can1.o(i.CAN1_Send_Msg_gimbal) refers to stm32f4xx_can.o(i.CAN_Transmit) for CAN_Transmit
    can1.o(i.CAN1_Send_Msg_gimbal) refers to stm32f4xx_can.o(i.CAN_TransmitStatus) for CAN_TransmitStatus
    can1.o(i.kalman) refers to can1.o(.bss) for old_kalman
    can1.o(i.kalman) refers to can1.o(.data) for variance_kalman
    led.o(i.LED_Init) refers to stm32f4xx_rcc.o(i.RCC_AHB1PeriphClockCmd) for RCC_AHB1PeriphClockCmd
    led.o(i.LED_Init) refers to stm32f4xx_gpio.o(i.GPIO_Init) for GPIO_Init
    led.o(i.LED_Init) refers to stm32f4xx_gpio.o(i.GPIO_SetBits) for GPIO_SetBits
    led.o(i.Laser_Init) refers to stm32f4xx_rcc.o(i.RCC_AHB1PeriphClockCmd) for RCC_AHB1PeriphClockCmd
    led.o(i.Laser_Init) refers to stm32f4xx_gpio.o(i.GPIO_Init) for GPIO_Init
    led.o(i.laser_off) refers to stm32f4xx_gpio.o(i.GPIO_ResetBits) for GPIO_ResetBits
    led.o(i.laser_on) refers to stm32f4xx_gpio.o(i.GPIO_SetBits) for GPIO_SetBits
    mpu6500.o(i.IMU_Init) refers to filter.o(i.LPF2pSetCutoffFreq_1) for LPF2pSetCutoffFreq_1
    mpu6500.o(i.IMU_Init) refers to filter.o(i.LPF2pSetCutoffFreq_2) for LPF2pSetCutoffFreq_2
    mpu6500.o(i.IMU_Init) refers to filter.o(i.LPF2pSetCutoffFreq_3) for LPF2pSetCutoffFreq_3
    mpu6500.o(i.IMU_Init) refers to filter.o(i.LPF2pSetCutoffFreq_4) for LPF2pSetCutoffFreq_4
    mpu6500.o(i.IMU_Init) refers to filter.o(i.LPF2pSetCutoffFreq_5) for LPF2pSetCutoffFreq_5
    mpu6500.o(i.IMU_Init) refers to filter.o(i.LPF2pSetCutoffFreq_6) for LPF2pSetCutoffFreq_6
    mpu6500.o(i.IMU_Init) refers to mpu6500.o(.bss) for imu
    mpu6500.o(i.IST8310_Init) refers to mpu6500.o(i.MPU6500_Write_Reg) for MPU6500_Write_Reg
    mpu6500.o(i.IST8310_Init) refers to delay.o(i.delay_ms) for delay_ms
    mpu6500.o(i.IST8310_Init) refers to mpu6500.o(i.IST_Reg_Write_By_MPU) for IST_Reg_Write_By_MPU
    mpu6500.o(i.IST8310_Init) refers to mpu6500.o(i.IST_Reg_Read_By_MPU) for IST_Reg_Read_By_MPU
    mpu6500.o(i.IST8310_Init) refers to mpu6500.o(i.MPU_Auto_Read_IST_config) for MPU_Auto_Read_IST_config
    mpu6500.o(i.IST_Reg_Read_By_MPU) refers to mpu6500.o(i.MPU6500_Write_Reg) for MPU6500_Write_Reg
    mpu6500.o(i.IST_Reg_Read_By_MPU) refers to delay.o(i.delay_ms) for delay_ms
    mpu6500.o(i.IST_Reg_Read_By_MPU) refers to mpu6500.o(i.MPU6500_Read_Reg) for MPU6500_Read_Reg
    mpu6500.o(i.IST_Reg_Write_By_MPU) refers to mpu6500.o(i.MPU6500_Write_Reg) for MPU6500_Write_Reg
    mpu6500.o(i.IST_Reg_Write_By_MPU) refers to delay.o(i.delay_ms) for delay_ms
    mpu6500.o(i.MPU6050AccRead) refers to spi.o(i.SPI5_ReadWriteByte) for SPI5_ReadWriteByte
    mpu6500.o(i.MPU6050GyroRead) refers to spi.o(i.SPI5_ReadWriteByte) for SPI5_ReadWriteByte
    mpu6500.o(i.MPU6500_Init) refers to rt_memcpy_w.o(.text) for __aeabi_memcpy4
    mpu6500.o(i.MPU6500_Init) refers to delay.o(i.delay_ms) for delay_ms
    mpu6500.o(i.MPU6500_Init) refers to mpu6500.o(i.MPU6500_Read_Reg) for MPU6500_Read_Reg
    mpu6500.o(i.MPU6500_Init) refers to mpu6500.o(i.MPU6500_Write_Reg) for MPU6500_Write_Reg
    mpu6500.o(i.MPU6500_Init) refers to mpu6500.o(.constdata) for .constdata
    mpu6500.o(i.MPU6500_Init) refers to mpu6500.o(.data) for MPU_id
    mpu6500.o(i.MPU6500_Read_Reg) refers to spi.o(i.SPI5_ReadWriteByte) for SPI5_ReadWriteByte
    mpu6500.o(i.MPU6500_Read_Reg) refers to mpu6500.o(.data) for MPU_Tx
    mpu6500.o(i.MPU6500_Read_Regs) refers to spi.o(i.SPI5_ReadWriteByte) for SPI5_ReadWriteByte
    mpu6500.o(i.MPU6500_Read_Regs) refers to mpu6500.o(.data) for MPU_Tx
    mpu6500.o(i.MPU6500_Write_Reg) refers to spi.o(i.SPI5_ReadWriteByte) for SPI5_ReadWriteByte
    mpu6500.o(i.MPU6500_Write_Reg) refers to mpu6500.o(.data) for MPU_Tx
    mpu6500.o(i.MPU_Auto_Read_IST_config) refers to mpu6500.o(i.MPU6500_Write_Reg) for MPU6500_Write_Reg
    mpu6500.o(i.MPU_Auto_Read_IST_config) refers to delay.o(i.delay_ms) for delay_ms
    mpu6500.o(i.ReadIMUSensorHandle) refers to spi.o(i.SPI5_ReadWriteByte) for SPI5_ReadWriteByte
    mpu6500.o(i.ReadIMUSensorHandle) refers to mpu6500.o(i.MPU6050AccRead) for MPU6050AccRead
    mpu6500.o(i.ReadIMUSensorHandle) refers to mpu6500.o(i.MPU6050GyroRead) for MPU6050GyroRead
    mpu6500.o(i.ReadIMUSensorHandle) refers to filter.o(i.LPF2pApply_1) for LPF2pApply_1
    mpu6500.o(i.ReadIMUSensorHandle) refers to filter.o(i.LPF2pApply_2) for LPF2pApply_2
    mpu6500.o(i.ReadIMUSensorHandle) refers to filter.o(i.LPF2pApply_3) for LPF2pApply_3
    mpu6500.o(i.ReadIMUSensorHandle) refers to filter.o(i.LPF2pApply_4) for LPF2pApply_4
    mpu6500.o(i.ReadIMUSensorHandle) refers to filter.o(i.LPF2pApply_5) for LPF2pApply_5
    mpu6500.o(i.ReadIMUSensorHandle) refers to filter.o(i.LPF2pApply_6) for LPF2pApply_6
    mpu6500.o(i.ReadIMUSensorHandle) refers to mpu6500.o(.bss) for imu
    pwm.o(i.TIM12_PWM_Init) refers to stm32f4xx_rcc.o(i.RCC_APB1PeriphClockCmd) for RCC_APB1PeriphClockCmd
    pwm.o(i.TIM12_PWM_Init) refers to stm32f4xx_rcc.o(i.RCC_AHB1PeriphClockCmd) for RCC_AHB1PeriphClockCmd
    pwm.o(i.TIM12_PWM_Init) refers to stm32f4xx_gpio.o(i.GPIO_PinAFConfig) for GPIO_PinAFConfig
    pwm.o(i.TIM12_PWM_Init) refers to stm32f4xx_gpio.o(i.GPIO_Init) for GPIO_Init
    pwm.o(i.TIM12_PWM_Init) refers to stm32f4xx_tim.o(i.TIM_TimeBaseInit) for TIM_TimeBaseInit
    pwm.o(i.TIM12_PWM_Init) refers to stm32f4xx_tim.o(i.TIM_OC1Init) for TIM_OC1Init
    pwm.o(i.TIM12_PWM_Init) refers to stm32f4xx_tim.o(i.TIM_OC2Init) for TIM_OC2Init
    pwm.o(i.TIM12_PWM_Init) refers to stm32f4xx_tim.o(i.TIM_OC1PreloadConfig) for TIM_OC1PreloadConfig
    pwm.o(i.TIM12_PWM_Init) refers to stm32f4xx_tim.o(i.TIM_OC2PreloadConfig) for TIM_OC2PreloadConfig
    pwm.o(i.TIM12_PWM_Init) refers to stm32f4xx_tim.o(i.TIM_ARRPreloadConfig) for TIM_ARRPreloadConfig
    pwm.o(i.TIM1_PWM_Init) refers to stm32f4xx_rcc.o(i.RCC_AHB1PeriphClockCmd) for RCC_AHB1PeriphClockCmd
    pwm.o(i.TIM1_PWM_Init) refers to stm32f4xx_rcc.o(i.RCC_APB2PeriphClockCmd) for RCC_APB2PeriphClockCmd
    pwm.o(i.TIM1_PWM_Init) refers to stm32f4xx_gpio.o(i.GPIO_PinAFConfig) for GPIO_PinAFConfig
    pwm.o(i.TIM1_PWM_Init) refers to stm32f4xx_gpio.o(i.GPIO_Init) for GPIO_Init
    pwm.o(i.TIM1_PWM_Init) refers to stm32f4xx_rcc.o(i.RCC_APB2PeriphResetCmd) for RCC_APB2PeriphResetCmd
    pwm.o(i.TIM1_PWM_Init) refers to stm32f4xx_tim.o(i.TIM_TimeBaseInit) for TIM_TimeBaseInit
    pwm.o(i.TIM1_PWM_Init) refers to stm32f4xx_tim.o(i.TIM_OC1Init) for TIM_OC1Init
    pwm.o(i.TIM1_PWM_Init) refers to stm32f4xx_tim.o(i.TIM_OC4Init) for TIM_OC4Init
    pwm.o(i.TIM1_PWM_Init) refers to stm32f4xx_tim.o(i.TIM_OC1PreloadConfig) for TIM_OC1PreloadConfig
    pwm.o(i.TIM1_PWM_Init) refers to stm32f4xx_tim.o(i.TIM_OC4PreloadConfig) for TIM_OC4PreloadConfig
    pwm.o(i.TIM1_PWM_Init) refers to stm32f4xx_tim.o(i.TIM_ARRPreloadConfig) for TIM_ARRPreloadConfig
    pwm.o(i.TIM1_PWM_Init) refers to stm32f4xx_tim.o(i.TIM_CtrlPWMOutputs) for TIM_CtrlPWMOutputs
    pwm.o(i.TIM1_PWM_Init) refers to stm32f4xx_tim.o(i.TIM_Cmd) for TIM_Cmd
    pwm.o(i.TIM1_PWM_Init) refers to stm32f4xx_gpio.o(i.GPIO_SetBits) for GPIO_SetBits
    pwm.o(i.TIM3_PWM_Init) refers to stm32f4xx_rcc.o(i.RCC_APB1PeriphClockCmd) for RCC_APB1PeriphClockCmd
    pwm.o(i.TIM3_PWM_Init) refers to stm32f4xx_rcc.o(i.RCC_AHB1PeriphClockCmd) for RCC_AHB1PeriphClockCmd
    pwm.o(i.TIM3_PWM_Init) refers to stm32f4xx_gpio.o(i.GPIO_PinAFConfig) for GPIO_PinAFConfig
    pwm.o(i.TIM3_PWM_Init) refers to stm32f4xx_gpio.o(i.GPIO_Init) for GPIO_Init
    pwm.o(i.TIM3_PWM_Init) refers to stm32f4xx_tim.o(i.TIM_TimeBaseInit) for TIM_TimeBaseInit
    pwm.o(i.TIM3_PWM_Init) refers to stm32f4xx_tim.o(i.TIM_OC2Init) for TIM_OC2Init
    pwm.o(i.TIM3_PWM_Init) refers to stm32f4xx_tim.o(i.TIM_OC1Init) for TIM_OC1Init
    pwm.o(i.TIM3_PWM_Init) refers to stm32f4xx_tim.o(i.TIM_OC2PreloadConfig) for TIM_OC2PreloadConfig
    pwm.o(i.TIM3_PWM_Init) refers to stm32f4xx_tim.o(i.TIM_ARRPreloadConfig) for TIM_ARRPreloadConfig
    pwm.o(i.TIM3_PWM_Init) refers to stm32f4xx_tim.o(i.TIM_Cmd) for TIM_Cmd
    remotecontrol.o(i.DMA2_Stream5_IRQHandler) refers to stm32f4xx_dma.o(i.DMA_GetFlagStatus) for DMA_GetFlagStatus
    remotecontrol.o(i.DMA2_Stream5_IRQHandler) refers to stm32f4xx_dma.o(i.DMA_ClearFlag) for DMA_ClearFlag
    remotecontrol.o(i.DMA2_Stream5_IRQHandler) refers to stm32f4xx_dma.o(i.DMA_ClearITPendingBit) for DMA_ClearITPendingBit
    remotecontrol.o(i.DMA2_Stream5_IRQHandler) refers to remotecontrol.o(i.Get_RC_Data) for Get_RC_Data
    remotecontrol.o(i.DMA2_Stream5_IRQHandler) refers to remotecontrol.o(i.FailSafe_Check) for FailSafe_Check
    remotecontrol.o(i.FailSafe_Check) refers to remotecontrol.o(.data) for failsafe_flag
    remotecontrol.o(i.FailSafe_Check) refers to remotecontrol.o(.bss) for RC_Ctl
    remotecontrol.o(i.Get_RC_Data) refers to remotecontrol.o(i.KeyDataProcess) for KeyDataProcess
    remotecontrol.o(i.Get_RC_Data) refers to remotecontrol.o(.bss) for sbus_rx_buffer
    remotecontrol.o(i.Get_RC_Data) refers to remotecontrol.o(.data) for failsafe_flag
    remotecontrol.o(i.RC_Init) refers to stm32f4xx_rcc.o(i.RCC_AHB1PeriphClockCmd) for RCC_AHB1PeriphClockCmd
    remotecontrol.o(i.RC_Init) refers to stm32f4xx_rcc.o(i.RCC_APB2PeriphClockCmd) for RCC_APB2PeriphClockCmd
    remotecontrol.o(i.RC_Init) refers to stm32f4xx_gpio.o(i.GPIO_PinAFConfig) for GPIO_PinAFConfig
    remotecontrol.o(i.RC_Init) refers to stm32f4xx_gpio.o(i.GPIO_Init) for GPIO_Init
    remotecontrol.o(i.RC_Init) refers to stm32f4xx_usart.o(i.USART_DeInit) for USART_DeInit
    remotecontrol.o(i.RC_Init) refers to stm32f4xx_usart.o(i.USART_Init) for USART_Init
    remotecontrol.o(i.RC_Init) refers to stm32f4xx_usart.o(i.USART_Cmd) for USART_Cmd
    remotecontrol.o(i.RC_Init) refers to stm32f4xx_usart.o(i.USART_DMACmd) for USART_DMACmd
    remotecontrol.o(i.RC_Init) refers to misc.o(i.NVIC_Init) for NVIC_Init
    remotecontrol.o(i.RC_Init) refers to stm32f4xx_dma.o(i.DMA_Cmd) for DMA_Cmd
    remotecontrol.o(i.RC_Init) refers to stm32f4xx_dma.o(i.DMA_DeInit) for DMA_DeInit
    remotecontrol.o(i.RC_Init) refers to stm32f4xx_dma.o(i.DMA_Init) for DMA_Init
    remotecontrol.o(i.RC_Init) refers to stm32f4xx_dma.o(i.DMA_ITConfig) for DMA_ITConfig
    remotecontrol.o(i.RC_Init) refers to remotecontrol.o(.bss) for sbus_rx_buffer
    spi.o(i.SPI5_Init) refers to stm32f4xx_rcc.o(i.RCC_AHB1PeriphClockCmd) for RCC_AHB1PeriphClockCmd
    spi.o(i.SPI5_Init) refers to stm32f4xx_rcc.o(i.RCC_APB2PeriphClockCmd) for RCC_APB2PeriphClockCmd
    spi.o(i.SPI5_Init) refers to stm32f4xx_gpio.o(i.GPIO_Init) for GPIO_Init
    spi.o(i.SPI5_Init) refers to stm32f4xx_gpio.o(i.GPIO_PinAFConfig) for GPIO_PinAFConfig
    spi.o(i.SPI5_Init) refers to stm32f4xx_rcc.o(i.RCC_APB2PeriphResetCmd) for RCC_APB2PeriphResetCmd
    spi.o(i.SPI5_Init) refers to stm32f4xx_spi.o(i.SPI_Init) for SPI_Init
    spi.o(i.SPI5_Init) refers to stm32f4xx_spi.o(i.SPI_Cmd) for SPI_Cmd
    spi.o(i.SPI5_ReadWriteByte) refers to stm32f4xx_spi.o(i.SPI_I2S_GetFlagStatus) for SPI_I2S_GetFlagStatus
    spi.o(i.SPI5_ReadWriteByte) refers to stm32f4xx_spi.o(i.SPI_I2S_SendData) for SPI_I2S_SendData
    spi.o(i.SPI5_ReadWriteByte) refers to stm32f4xx_spi.o(i.SPI_I2S_ReceiveData) for SPI_I2S_ReceiveData
    spi.o(i.SPI5_SetSpeed) refers to stm32f4xx_spi.o(i.SPI_Cmd) for SPI_Cmd
    comm_umpire.o(i.Comm_umpire_Init) refers to stm32f4xx_rcc.o(i.RCC_AHB1PeriphClockCmd) for RCC_AHB1PeriphClockCmd
    comm_umpire.o(i.Comm_umpire_Init) refers to stm32f4xx_rcc.o(i.RCC_APB2PeriphClockCmd) for RCC_APB2PeriphClockCmd
    comm_umpire.o(i.Comm_umpire_Init) refers to stm32f4xx_gpio.o(i.GPIO_PinAFConfig) for GPIO_PinAFConfig
    comm_umpire.o(i.Comm_umpire_Init) refers to stm32f4xx_gpio.o(i.GPIO_Init) for GPIO_Init
    comm_umpire.o(i.Comm_umpire_Init) refers to stm32f4xx_usart.o(i.USART_DeInit) for USART_DeInit
    comm_umpire.o(i.Comm_umpire_Init) refers to stm32f4xx_usart.o(i.USART_Init) for USART_Init
    comm_umpire.o(i.Comm_umpire_Init) refers to stm32f4xx_usart.o(i.USART_Cmd) for USART_Cmd
    comm_umpire.o(i.Comm_umpire_Init) refers to stm32f4xx_usart.o(i.USART_DMACmd) for USART_DMACmd
    comm_umpire.o(i.Comm_umpire_Init) refers to stm32f4xx_usart.o(i.USART_ITConfig) for USART_ITConfig
    comm_umpire.o(i.Comm_umpire_Init) refers to misc.o(i.NVIC_Init) for NVIC_Init
    comm_umpire.o(i.Comm_umpire_Init) refers to stm32f4xx_dma.o(i.DMA_DeInit) for DMA_DeInit
    comm_umpire.o(i.Comm_umpire_Init) refers to stm32f4xx_dma.o(i.DMA_Init) for DMA_Init
    comm_umpire.o(i.Comm_umpire_Init) refers to stm32f4xx_dma.o(i.DMA_Cmd) for DMA_Cmd
    comm_umpire.o(i.Comm_umpire_Init) refers to comm_umpire.o(.bss) for Rx_buffer
    comm_umpire.o(i.DMA2_Stream7_IRQHandler) refers to stm32f4xx_dma.o(i.DMA_GetFlagStatus) for DMA_GetFlagStatus
    comm_umpire.o(i.DMA2_Stream7_IRQHandler) refers to stm32f4xx_dma.o(i.DMA_ClearFlag) for DMA_ClearFlag
    comm_umpire.o(i.DealDataPack) refers to _printf_percent.o(.ARM.Collect$$_printf_percent$$00000000) for _printf_percent
    comm_umpire.o(i.DealDataPack) refers to _printf_f.o(.ARM.Collect$$_printf_percent$$00000003) for _printf_f
    comm_umpire.o(i.DealDataPack) refers to printf1.o(x$fpl$printf1) for _printf_fp_dec
    comm_umpire.o(i.DealDataPack) refers to f2d.o(x$fpl$f2d) for __aeabi_f2d
    comm_umpire.o(i.DealDataPack) refers to noretval__2printf.o(.text) for __2printf
    comm_umpire.o(i.DealDataPack) refers to comm_umpire.o(.data) for Pointer
    comm_umpire.o(i.DealDataPack) refers to comm_umpire.o(.bss) for Rx_buffer
    comm_umpire.o(i.DmaSendDataProc) refers to stm32f4xx_dma.o(i.DMA_Cmd) for DMA_Cmd
    comm_umpire.o(i.DmaSendDataProc) refers to stm32f4xx_dma.o(i.DMA_GetCmdStatus) for DMA_GetCmdStatus
    comm_umpire.o(i.DmaSendDataProc) refers to stm32f4xx_dma.o(i.DMA_SetCurrDataCounter) for DMA_SetCurrDataCounter
    comm_umpire.o(i.Get_UmpireData) refers to crc.o(i.Verify_CRC8_Check_Sum) for Verify_CRC8_Check_Sum
    comm_umpire.o(i.Get_UmpireData) refers to crc.o(i.Verify_CRC16_Check_Sum) for Verify_CRC16_Check_Sum
    comm_umpire.o(i.Get_UmpireData) refers to comm_umpire.o(i.DealDataPack) for DealDataPack
    comm_umpire.o(i.Get_UmpireData) refers to comm_umpire.o(.data) for Pointer
    comm_umpire.o(i.Get_UmpireData) refers to comm_umpire.o(.bss) for Rx_buffer
    comm_umpire.o(i.SendByteInfoProc) refers to comm_umpire.o(i.DmaSendDataProc) for DmaSendDataProc
    comm_umpire.o(i.SendByteInfoProc) refers to comm_umpire.o(.bss) for SendBuff
    comm_umpire.o(i.SendBytesInfoProc) refers to comm_umpire.o(i.DmaSendDataProc) for DmaSendDataProc
    comm_umpire.o(i.SendBytesInfoProc) refers to comm_umpire.o(.bss) for SendBuff
    comm_umpire.o(i.USART6_IRQHandler) refers to stm32f4xx_usart.o(i.USART_GetITStatus) for USART_GetITStatus
    comm_umpire.o(i.USART6_IRQHandler) refers to stm32f4xx_dma.o(i.DMA_Cmd) for DMA_Cmd
    comm_umpire.o(i.USART6_IRQHandler) refers to stm32f4xx_dma.o(i.DMA_GetCurrDataCounter) for DMA_GetCurrDataCounter
    comm_umpire.o(i.USART6_IRQHandler) refers to comm_umpire.o(i.Get_UmpireData) for Get_UmpireData
    comm_umpire.o(i.USART6_IRQHandler) refers to stm32f4xx_dma.o(i.DMA_ClearFlag) for DMA_ClearFlag
    comm_umpire.o(i.USART6_IRQHandler) refers to stm32f4xx_dma.o(i.DMA_SetCurrDataCounter) for DMA_SetCurrDataCounter
    digital.o(i.digital_init) refers to stm32f4xx_rcc.o(i.RCC_AHB1PeriphClockCmd) for RCC_AHB1PeriphClockCmd
    digital.o(i.digital_init) refers to stm32f4xx_gpio.o(i.GPIO_Init) for GPIO_Init
    can2.o(i.CAN2_Configuration) refers to stm32f4xx_rcc.o(i.RCC_AHB1PeriphClockCmd) for RCC_AHB1PeriphClockCmd
    can2.o(i.CAN2_Configuration) refers to stm32f4xx_rcc.o(i.RCC_APB1PeriphClockCmd) for RCC_APB1PeriphClockCmd
    can2.o(i.CAN2_Configuration) refers to stm32f4xx_gpio.o(i.GPIO_PinAFConfig) for GPIO_PinAFConfig
    can2.o(i.CAN2_Configuration) refers to stm32f4xx_gpio.o(i.GPIO_Init) for GPIO_Init
    can2.o(i.CAN2_Configuration) refers to misc.o(i.NVIC_Init) for NVIC_Init
    can2.o(i.CAN2_Configuration) refers to stm32f4xx_can.o(i.CAN_DeInit) for CAN_DeInit
    can2.o(i.CAN2_Configuration) refers to stm32f4xx_can.o(i.CAN_StructInit) for CAN_StructInit
    can2.o(i.CAN2_Configuration) refers to stm32f4xx_can.o(i.CAN_Init) for CAN_Init
    can2.o(i.CAN2_Configuration) refers to stm32f4xx_can.o(i.CAN_FilterInit) for CAN_FilterInit
    can2.o(i.CAN2_Configuration) refers to stm32f4xx_can.o(i.CAN_ITConfig) for CAN_ITConfig
    can2.o(i.CAN2_RX0_IRQHandler) refers to stm32f4xx_can.o(i.CAN_GetITStatus) for CAN_GetITStatus
    can2.o(i.CAN2_RX0_IRQHandler) refers to stm32f4xx_can.o(i.CAN_ClearITPendingBit) for CAN_ClearITPendingBit
    can2.o(i.CAN2_RX0_IRQHandler) refers to stm32f4xx_can.o(i.CAN_ClearFlag) for CAN_ClearFlag
    can2.o(i.CAN2_RX0_IRQHandler) refers to stm32f4xx_can.o(i.CAN_Receive) for CAN_Receive
    can2.o(i.CAN2_RX0_IRQHandler) refers to dflt_clz.o(x$fpl$dflt) for __aeabi_i2d
    can2.o(i.CAN2_RX0_IRQHandler) refers to dmul.o(x$fpl$dmul) for __aeabi_dmul
    can2.o(i.CAN2_RX0_IRQHandler) refers to d2f.o(x$fpl$d2f) for __aeabi_d2f
    can2.o(i.CAN2_RX0_IRQHandler) refers to can2.o(.data) for TX2_Data
    can2.o(i.CAN2_RX0_IRQHandler) refers to can2.o(.bss) for Vision_Data
    can2.o(i.CAN2_Send) refers to stm32f4xx_can.o(i.CAN_Transmit) for CAN_Transmit
    can2.o(i.CAN2_Send) refers to stm32f4xx_can.o(i.CAN_TransmitStatus) for CAN_TransmitStatus
    timer.o(i.TIM4_IRQHandler) refers to stm32f4xx_tim.o(i.TIM_GetITStatus) for TIM_GetITStatus
    timer.o(i.TIM4_IRQHandler) refers to stm32f4xx_tim.o(i.TIM_ClearITPendingBit) for TIM_ClearITPendingBit
    timer.o(i.TIM4_IRQHandler) refers to timer.o(.data) for Hz500_Cnt
    timer.o(i.TIM4_Int_Init) refers to stm32f4xx_rcc.o(i.RCC_APB1PeriphClockCmd) for RCC_APB1PeriphClockCmd
    timer.o(i.TIM4_Int_Init) refers to stm32f4xx_tim.o(i.TIM_DeInit) for TIM_DeInit
    timer.o(i.TIM4_Int_Init) refers to stm32f4xx_tim.o(i.TIM_TimeBaseInit) for TIM_TimeBaseInit
    timer.o(i.TIM4_Int_Init) refers to misc.o(i.NVIC_Init) for NVIC_Init
    timer.o(i.TIM4_Int_Init) refers to stm32f4xx_tim.o(i.TIM_ITConfig) for TIM_ITConfig
    timer.o(i.TIM4_Int_Init) refers to stm32f4xx_tim.o(i.TIM_Cmd) for TIM_Cmd
    crc.o(i.Append_CRC16_Check_Sum) refers to crc.o(i.Get_CRC16_Check_Sum) for Get_CRC16_Check_Sum
    crc.o(i.Append_CRC16_Check_Sum) refers to crc.o(.data) for CRC_INIT
    crc.o(i.Append_CRC8_Check_Sum) refers to crc.o(i.Get_CRC8_Check_Sum) for Get_CRC8_Check_Sum
    crc.o(i.Get_CRC16_Check_Sum) refers to crc.o(.constdata) for wCRC_Table
    crc.o(i.Get_CRC8_Check_Sum) refers to crc.o(.constdata) for CRC8_TAB
    crc.o(i.Verify_CRC16_Check_Sum) refers to crc.o(i.Get_CRC16_Check_Sum) for Get_CRC16_Check_Sum
    crc.o(i.Verify_CRC16_Check_Sum) refers to crc.o(.data) for CRC_INIT
    crc.o(i.Verify_CRC8_Check_Sum) refers to crc.o(i.Get_CRC8_Check_Sum) for Get_CRC8_Check_Sum
    fric.o(i.fric1_on) refers to pwm.o(i.PWM_Write) for PWM_Write
    fric.o(i.fric2_on) refers to pwm.o(i.PWM_Write) for PWM_Write
    fric.o(i.fric_PWM_configuration) refers to stm32f4xx_rcc.o(i.RCC_AHB1PeriphClockCmd) for RCC_AHB1PeriphClockCmd
    fric.o(i.fric_PWM_configuration) refers to stm32f4xx_rcc.o(i.RCC_APB2PeriphClockCmd) for RCC_APB2PeriphClockCmd
    fric.o(i.fric_PWM_configuration) refers to stm32f4xx_gpio.o(i.GPIO_PinAFConfig) for GPIO_PinAFConfig
    fric.o(i.fric_PWM_configuration) refers to stm32f4xx_gpio.o(i.GPIO_Init) for GPIO_Init
    fric.o(i.fric_PWM_configuration) refers to stm32f4xx_rcc.o(i.RCC_APB2PeriphResetCmd) for RCC_APB2PeriphResetCmd
    fric.o(i.fric_PWM_configuration) refers to stm32f4xx_tim.o(i.TIM_TimeBaseInit) for TIM_TimeBaseInit
    fric.o(i.fric_PWM_configuration) refers to stm32f4xx_tim.o(i.TIM_OC1Init) for TIM_OC1Init
    fric.o(i.fric_PWM_configuration) refers to stm32f4xx_tim.o(i.TIM_OC4Init) for TIM_OC4Init
    fric.o(i.fric_PWM_configuration) refers to stm32f4xx_tim.o(i.TIM_OC1PreloadConfig) for TIM_OC1PreloadConfig
    fric.o(i.fric_PWM_configuration) refers to stm32f4xx_tim.o(i.TIM_OC4PreloadConfig) for TIM_OC4PreloadConfig
    fric.o(i.fric_PWM_configuration) refers to stm32f4xx_tim.o(i.TIM_ARRPreloadConfig) for TIM_ARRPreloadConfig
    fric.o(i.fric_PWM_configuration) refers to stm32f4xx_tim.o(i.TIM_CtrlPWMOutputs) for TIM_CtrlPWMOutputs
    fric.o(i.fric_PWM_configuration) refers to stm32f4xx_tim.o(i.TIM_Cmd) for TIM_Cmd
    fric.o(i.fric_PWM_configuration) refers to fric.o(i.fric_off) for fric_off
    fric.o(i.fric_PWM_configuration) refers to stm32f4xx_gpio.o(i.GPIO_SetBits) for GPIO_SetBits
    fric.o(i.fric_off) refers to pwm.o(i.PWM_Write) for PWM_Write
    power_ctrl.o(i.power_ctrl_configuration) refers to stm32f4xx_rcc.o(i.RCC_AHB1PeriphClockCmd) for RCC_AHB1PeriphClockCmd
    power_ctrl.o(i.power_ctrl_configuration) refers to stm32f4xx_gpio.o(i.GPIO_Init) for GPIO_Init
    power_ctrl.o(i.power_ctrl_configuration) refers to power_ctrl.o(i.power_ctrl_off) for power_ctrl_off
    power_ctrl.o(i.power_ctrl_off) refers to stm32f4xx_gpio.o(i.GPIO_ResetBits) for GPIO_ResetBits
    power_ctrl.o(i.power_ctrl_on) refers to stm32f4xx_gpio.o(i.GPIO_SetBits) for GPIO_SetBits
    power_ctrl.o(i.power_ctrl_toggle) refers to stm32f4xx_gpio.o(i.GPIO_ToggleBits) for GPIO_ToggleBits
    ctrl_chassis.o(i.Inverse_Kinematic_Ctrl) refers to ctrl_chassis.o(i.motor_angle_ctrl) for motor_angle_ctrl
    ctrl_chassis.o(i.encoders_err) refers to can1.o(.bss) for motor_data
    ctrl_chassis.o(i.encoders_err) refers to ctrl_chassis.o(.data) for Encoders
    ctrl_chassis.o(i.motor_angle_ctrl) refers to ctrl_chassis.o(i.virtual_encoders) for virtual_encoders
    ctrl_chassis.o(i.motor_angle_ctrl) refers to ctrl_chassis.o(i.encoders_err) for encoders_err
    ctrl_chassis.o(i.motor_angle_ctrl) refers to pid.o(i.PID_Control) for PID_Control
    ctrl_chassis.o(i.motor_angle_ctrl) refers to ctrl_chassis.o(.data) for Encoders
    ctrl_chassis.o(i.motor_angle_ctrl) refers to can1.o(.bss) for motor_data
    ctrl_chassis.o(i.motor_angle_ctrl) refers to ctrl_chassis.o(.bss) for angle_pid
    ctrl_chassis.o(i.motor_angle_ctrl) refers to pid.o(.bss) for motor_speed_pid
    ctrl_chassis.o(i.motor_speed_ctrl) refers to pid.o(i.PID_Control) for PID_Control
    ctrl_chassis.o(i.motor_speed_ctrl) refers to can1.o(.bss) for motor_data
    ctrl_chassis.o(i.motor_speed_ctrl) refers to pid.o(.bss) for motor_speed_pid
    ctrl_chassis.o(i.virtual_encoders) refers to ctrl_chassis.o(.data) for Encoders
    filter.o(i.LPF2pApply_1) refers to filter.o(i.__ARM_isnanf) for __ARM_isnanf
    filter.o(i.LPF2pApply_1) refers to filter.o(i.__ARM_isinff) for __ARM_isinff
    filter.o(i.LPF2pApply_1) refers to filter.o(.data) for _cutoff_freq1
    filter.o(i.LPF2pApply_2) refers to filter.o(i.__ARM_isnanf) for __ARM_isnanf
    filter.o(i.LPF2pApply_2) refers to filter.o(i.__ARM_isinff) for __ARM_isinff
    filter.o(i.LPF2pApply_2) refers to filter.o(.data) for _cutoff_freq2
    filter.o(i.LPF2pApply_3) refers to filter.o(i.__ARM_isnanf) for __ARM_isnanf
    filter.o(i.LPF2pApply_3) refers to filter.o(i.__ARM_isinff) for __ARM_isinff
    filter.o(i.LPF2pApply_3) refers to filter.o(.data) for _cutoff_freq3
    filter.o(i.LPF2pApply_4) refers to filter.o(i.__ARM_isnanf) for __ARM_isnanf
    filter.o(i.LPF2pApply_4) refers to filter.o(i.__ARM_isinff) for __ARM_isinff
    filter.o(i.LPF2pApply_4) refers to filter.o(.data) for _cutoff_freq4
    filter.o(i.LPF2pApply_5) refers to filter.o(i.__ARM_isnanf) for __ARM_isnanf
    filter.o(i.LPF2pApply_5) refers to filter.o(i.__ARM_isinff) for __ARM_isinff
    filter.o(i.LPF2pApply_5) refers to filter.o(.data) for _cutoff_freq5
    filter.o(i.LPF2pApply_6) refers to filter.o(i.__ARM_isnanf) for __ARM_isnanf
    filter.o(i.LPF2pApply_6) refers to filter.o(i.__ARM_isinff) for __ARM_isinff
    filter.o(i.LPF2pApply_6) refers to filter.o(.data) for _cutoff_freq6
    filter.o(i.LPF2pSetCutoffFreq_1) refers to tanf.o(i.__hardfp_tanf) for __hardfp_tanf
    filter.o(i.LPF2pSetCutoffFreq_1) refers to cosf.o(i.__hardfp_cosf) for __hardfp_cosf
    filter.o(i.LPF2pSetCutoffFreq_1) refers to filter.o(.data) for _cutoff_freq1
    filter.o(i.LPF2pSetCutoffFreq_2) refers to tanf.o(i.__hardfp_tanf) for __hardfp_tanf
    filter.o(i.LPF2pSetCutoffFreq_2) refers to cosf.o(i.__hardfp_cosf) for __hardfp_cosf
    filter.o(i.LPF2pSetCutoffFreq_2) refers to filter.o(.data) for _cutoff_freq2
    filter.o(i.LPF2pSetCutoffFreq_3) refers to tanf.o(i.__hardfp_tanf) for __hardfp_tanf
    filter.o(i.LPF2pSetCutoffFreq_3) refers to cosf.o(i.__hardfp_cosf) for __hardfp_cosf
    filter.o(i.LPF2pSetCutoffFreq_3) refers to filter.o(.data) for _cutoff_freq3
    filter.o(i.LPF2pSetCutoffFreq_4) refers to tanf.o(i.__hardfp_tanf) for __hardfp_tanf
    filter.o(i.LPF2pSetCutoffFreq_4) refers to cosf.o(i.__hardfp_cosf) for __hardfp_cosf
    filter.o(i.LPF2pSetCutoffFreq_4) refers to filter.o(.data) for _cutoff_freq4
    filter.o(i.LPF2pSetCutoffFreq_5) refers to tanf.o(i.__hardfp_tanf) for __hardfp_tanf
    filter.o(i.LPF2pSetCutoffFreq_5) refers to cosf.o(i.__hardfp_cosf) for __hardfp_cosf
    filter.o(i.LPF2pSetCutoffFreq_5) refers to filter.o(.data) for _cutoff_freq5
    filter.o(i.LPF2pSetCutoffFreq_6) refers to tanf.o(i.__hardfp_tanf) for __hardfp_tanf
    filter.o(i.LPF2pSetCutoffFreq_6) refers to cosf.o(i.__hardfp_cosf) for __hardfp_cosf
    filter.o(i.LPF2pSetCutoffFreq_6) refers to filter.o(.data) for _cutoff_freq6
    higher_class.o(i.Astrict_Acc) refers to f2d.o(x$fpl$f2d) for __aeabi_f2d
    higher_class.o(i.Astrict_Acc) refers to fabs.o(i.__hardfp_fabs) for __hardfp_fabs
    higher_class.o(i.Astrict_Acc) refers to dmul.o(x$fpl$dmul) for __aeabi_dmul
    higher_class.o(i.Astrict_Acc) refers to ddiv.o(x$fpl$ddiv) for __aeabi_ddiv
    higher_class.o(i.Astrict_Acc) refers to daddsub_clz.o(x$fpl$dadd) for __aeabi_dadd
    higher_class.o(i.Astrict_Acc) refers to d2f.o(x$fpl$d2f) for __aeabi_d2f
    higher_class.o(i.Astrict_Acc) refers to higher_class.o(.data) for Vx_Lpf
    higher_class.o(i.Matrix_Translate) refers to cosf.o(i.__hardfp_cosf) for __hardfp_cosf
    higher_class.o(i.Matrix_Translate) refers to sinf.o(i.__hardfp_sinf) for __hardfp_sinf
    higher_class.o(i.Vision_Mode) refers to can2.o(i.CAN2_Send) for CAN2_Send
    higher_class.o(i.Vision_Mode) refers to can2.o(.bss) for Vision_Data
    imu.o(i.IMUSO3Thread) refers to rt_memcpy_w.o(.text) for __aeabi_memcpy4
    imu.o(i.IMUSO3Thread) refers to stm32f4xx_it.o(i.micros) for micros
    imu.o(i.IMUSO3Thread) refers to mpu6500.o(i.ReadIMUSensorHandle) for ReadIMUSensorHandle
    imu.o(i.IMUSO3Thread) refers to imu.o(i.NonlinearSO3AHRSupdate) for NonlinearSO3AHRSupdate
    imu.o(i.IMUSO3Thread) refers to atan2f.o(i.__hardfp_atan2f) for __hardfp_atan2f
    imu.o(i.IMUSO3Thread) refers to asinf.o(i.__hardfp_asinf) for __hardfp_asinf
    imu.o(i.IMUSO3Thread) refers to imu.o(.constdata) for .constdata
    imu.o(i.IMUSO3Thread) refers to imu.o(.data) for tPrev
    imu.o(i.IMUSO3Thread) refers to mpu6500.o(.bss) for imu
    imu.o(i.IMUSO3Thread) refers to imu.o(.bss) for gyro_offsets_sum
    imu.o(i.IMU_Temp_Ctrl) refers to mpu6500.o(.bss) for imu
    imu.o(i.NonlinearSO3AHRSinit) refers to f2d.o(x$fpl$f2d) for __aeabi_f2d
    imu.o(i.NonlinearSO3AHRSinit) refers to atan2.o(i.__hardfp_atan2) for __hardfp_atan2
    imu.o(i.NonlinearSO3AHRSinit) refers to d2f.o(x$fpl$d2f) for __aeabi_d2f
    imu.o(i.NonlinearSO3AHRSinit) refers to cosf.o(i.__hardfp_cosf) for __hardfp_cosf
    imu.o(i.NonlinearSO3AHRSinit) refers to sinf.o(i.__hardfp_sinf) for __hardfp_sinf
    imu.o(i.NonlinearSO3AHRSinit) refers to atan2f.o(i.__hardfp_atan2f) for __hardfp_atan2f
    imu.o(i.NonlinearSO3AHRSinit) refers to imu.o(.data) for q0
    imu.o(i.NonlinearSO3AHRSupdate) refers to imu.o(i.NonlinearSO3AHRSinit) for NonlinearSO3AHRSinit
    imu.o(i.NonlinearSO3AHRSupdate) refers to imu.o(i.invSqrt) for invSqrt
    imu.o(i.NonlinearSO3AHRSupdate) refers to f2d.o(x$fpl$f2d) for __aeabi_f2d
    imu.o(i.NonlinearSO3AHRSupdate) refers to sqrt.o(i.__hardfp_sqrt) for __hardfp_sqrt
    imu.o(i.NonlinearSO3AHRSupdate) refers to d2f.o(x$fpl$d2f) for __aeabi_d2f
    imu.o(i.NonlinearSO3AHRSupdate) refers to imu.o(.data) for bFilterInit
    imu.o(i.NonlinearSO3AHRSupdate) refers to imu.o(.bss) for gyro_bias
    user_api.o(i.Chassis_Task) refers to higher_class.o(i.Astrict_Acc) for Astrict_Acc
    user_api.o(i.Chassis_Task) refers to ctrl_chassis.o(i.Inverse_Kinematic_Ctrl) for Inverse_Kinematic_Ctrl
    user_api.o(i.Chassis_Task) refers to can1.o(i.CAN1_SendCommand_chassis) for CAN1_SendCommand_chassis
    user_api.o(i.Chassis_Task) refers to user_api.o(.bss) for Control_data
    user_api.o(i.Chassis_Task) refers to higher_class.o(.data) for Wz_Lpf
    user_api.o(i.Chassis_Task) refers to pid.o(.bss) for motor_speed_pid
    user_api.o(i.Get_Ctrl_Data) refers to dflt_clz.o(x$fpl$dflt) for __aeabi_i2d
    user_api.o(i.Get_Ctrl_Data) refers to dmul.o(x$fpl$dmul) for __aeabi_dmul
    user_api.o(i.Get_Ctrl_Data) refers to d2f.o(x$fpl$d2f) for __aeabi_d2f
    user_api.o(i.Get_Ctrl_Data) refers to f2d.o(x$fpl$f2d) for __aeabi_f2d
    user_api.o(i.Get_Ctrl_Data) refers to daddsub_clz.o(x$fpl$dsub) for __aeabi_dsub
    user_api.o(i.Get_Ctrl_Data) refers to remotecontrol.o(.bss) for RC_Ctl
    user_api.o(i.Get_Ctrl_Data) refers to user_api.o(.bss) for Control_data
    user_api.o(i.Shoot_Ctrl) refers to user_api.o(.data) for Shoot_Flag
    user_api.o(i.Shoot_Ctrl) refers to comm_umpire.o(.data) for Umpire_State
    user_api.o(i.Shoot_Ctrl) refers to comm_umpire.o(.bss) for Umpire_PowerHeat
    user_api.o(i.Shoot_Ctrl) refers to shoot.o(.data) for printfBuff1
    user_api.o(i.Stop_Chassis_Task) refers to higher_class.o(i.Astrict_Acc) for Astrict_Acc
    user_api.o(i.Stop_Chassis_Task) refers to ctrl_chassis.o(i.Inverse_Kinematic_Ctrl) for Inverse_Kinematic_Ctrl
    user_api.o(i.Stop_Chassis_Task) refers to can1.o(i.CAN1_SendCommand_chassis) for CAN1_SendCommand_chassis
    user_api.o(i.Stop_Chassis_Task) refers to higher_class.o(.data) for Wz_Lpf
    user_api.o(i.Stop_Chassis_Task) refers to pid.o(.bss) for motor_speed_pid
    pid.o(i.PID_Control) refers to f2d.o(x$fpl$f2d) for __aeabi_f2d
    pid.o(i.PID_Control) refers to fabs.o(i.__hardfp_fabs) for __hardfp_fabs
    pid.o(i.PID_Control) refers to dleqf.o(x$fpl$dleqf) for __aeabi_cdcmple
    pid.o(i.PID_Control_Div_LPF) refers to pid.o(i.Control_Device_LPF) for Control_Device_LPF
    pid.o(i.PID_Control_Div_LPF) refers to f2d.o(x$fpl$f2d) for __aeabi_f2d
    pid.o(i.PID_Control_Div_LPF) refers to fabs.o(i.__hardfp_fabs) for __hardfp_fabs
    pid.o(i.PID_Control_Div_LPF) refers to dleqf.o(x$fpl$dleqf) for __aeabi_cdcmple
    pid.o(i.PID_Control_Div_LPF) refers to pid.o(.data) for Control_Device_Div_LPF_Parameter
    pid.o(i.PID_Control_Err_LPF) refers to pid.o(i.Control_Device_LPF) for Control_Device_LPF
    pid.o(i.PID_Control_Err_LPF) refers to f2d.o(x$fpl$f2d) for __aeabi_f2d
    pid.o(i.PID_Control_Err_LPF) refers to fabs.o(i.__hardfp_fabs) for __hardfp_fabs
    pid.o(i.PID_Control_Err_LPF) refers to dleqf.o(x$fpl$dleqf) for __aeabi_cdcmple
    pid.o(i.PID_Control_Err_LPF) refers to pid.o(.data) for Control_Device_Err_LPF_Parameter
    pid.o(i.Total_PID_Init) refers to pid.o(.bss) for motor_speed_pid
    shoot.o(i.Chassis_AutoFollow) refers to shoot.o(i.Encoder_angle_conversion) for Encoder_angle_conversion
    shoot.o(i.Chassis_AutoFollow) refers to higher_class.o(i.Matrix_Translate) for Matrix_Translate
    shoot.o(i.Chassis_AutoFollow) refers to higher_class.o(i.Astrict_Acc) for Astrict_Acc
    shoot.o(i.Chassis_AutoFollow) refers to ctrl_chassis.o(i.Inverse_Kinematic_Ctrl) for Inverse_Kinematic_Ctrl
    shoot.o(i.Chassis_AutoFollow) refers to shoot.o(i.Gimbal_Ctrl) for Gimbal_Ctrl
    shoot.o(i.Chassis_AutoFollow) refers to shoot.o(.data) for Yaw_EncodeAngle
    shoot.o(i.Chassis_AutoFollow) refers to higher_class.o(.data) for Wz_Lpf
    shoot.o(i.Encoder_angle_conversion) refers to can1.o(.bss) for motor_data
    shoot.o(i.Encoder_angle_conversion) refers to shoot.o(.data) for Yaw_EncodeAngle
    shoot.o(i.Gimbal_Ctrl) refers to shoot.o(i.Pitch_pid) for Pitch_pid
    shoot.o(i.Gimbal_Ctrl) refers to shoot.o(i.Yaw_angle_pid) for Yaw_angle_pid
    shoot.o(i.Gimbal_Ctrl) refers to shoot.o(i.motor_angle_pid) for motor_angle_pid
    shoot.o(i.Gimbal_Ctrl) refers to pid.o(i.PID_Control) for PID_Control
    shoot.o(i.Gimbal_Ctrl) refers to can1.o(i.CAN1_Send_Msg_gimbal) for CAN1_Send_Msg_gimbal
    shoot.o(i.Gimbal_Ctrl) refers to mpu6500.o(.bss) for imu
    shoot.o(i.Gimbal_Ctrl) refers to shoot.o(.data) for shoot_cnt
    shoot.o(i.Gimbal_Ctrl) refers to can1.o(.bss) for motor_data
    shoot.o(i.Gimbal_Ctrl) refers to pid.o(.bss) for Fire_speed_pid
    shoot.o(i.Gimbal_Ctrl_init) refers to can1.o(.bss) for motor_data
    shoot.o(i.Gimbal_Ctrl_init) refers to shoot.o(.data) for Encoders_shoot
    shoot.o(i.Pitch_pid) refers to pid.o(i.PID_Control) for PID_Control
    shoot.o(i.Pitch_pid) refers to mpu6500.o(.bss) for imu
    shoot.o(i.Pitch_pid) refers to pid.o(.bss) for Pitch_angle_pid
    shoot.o(i.Twist) refers to shoot.o(i.Encoder_angle_conversion) for Encoder_angle_conversion
    shoot.o(i.Twist) refers to higher_class.o(i.Matrix_Translate) for Matrix_Translate
    shoot.o(i.Twist) refers to higher_class.o(i.Astrict_Acc) for Astrict_Acc
    shoot.o(i.Twist) refers to ctrl_chassis.o(i.Inverse_Kinematic_Ctrl) for Inverse_Kinematic_Ctrl
    shoot.o(i.Twist) refers to shoot.o(i.Gimbal_Ctrl) for Gimbal_Ctrl
    shoot.o(i.Twist) refers to shoot.o(.data) for Yaw_EncodeAngle
    shoot.o(i.Twist) refers to higher_class.o(.data) for Wz_Lpf
    shoot.o(i.Yaw_angle_pid) refers to pid.o(i.PID_Control) for PID_Control
    shoot.o(i.Yaw_angle_pid) refers to mpu6500.o(.bss) for imu
    shoot.o(i.Yaw_angle_pid) refers to shoot.o(.data) for T_yaw
    shoot.o(i.Yaw_angle_pid) refers to pid.o(.bss) for Yaw_speed_pid
    shoot.o(i.encoders_err_shoot) refers to can1.o(.bss) for motor_data
    shoot.o(i.encoders_err_shoot) refers to shoot.o(.data) for Encoders_shoot
    shoot.o(i.motor_angle_pid) refers to shoot.o(i.virtual_encoders_shoot) for virtual_encoders_shoot
    shoot.o(i.motor_angle_pid) refers to shoot.o(i.encoders_err_shoot) for encoders_err_shoot
    shoot.o(i.motor_angle_pid) refers to dflt_clz.o(x$fpl$dflt) for __aeabi_i2d
    shoot.o(i.motor_angle_pid) refers to dmul.o(x$fpl$dmul) for __aeabi_dmul
    shoot.o(i.motor_angle_pid) refers to daddsub_clz.o(x$fpl$dadd) for __aeabi_dadd
    shoot.o(i.motor_angle_pid) refers to dfix.o(x$fpl$dfix) for __aeabi_d2iz
    shoot.o(i.motor_angle_pid) refers to can1.o(.bss) for motor_data
    shoot.o(i.motor_angle_pid) refers to shoot.o(.data) for old_target
    shoot.o(i.shoot_control_loop) refers to led.o(i.laser_on) for laser_on
    shoot.o(i.shoot_control_loop) refers to fric.o(i.fric1_on) for fric1_on
    shoot.o(i.shoot_control_loop) refers to fric.o(i.fric2_on) for fric2_on
    shoot.o(i.shoot_init) refers to user_lib.o(i.ramp_init) for ramp_init
    shoot.o(i.shoot_init) refers to shoot.o(.bss) for trigger_motor
    shoot.o(i.shoot_speed) refers to pid.o(i.PID_Control) for PID_Control
    shoot.o(i.shoot_speed) refers to can1.o(.bss) for motor_data
    shoot.o(i.shoot_speed) refers to pid.o(.bss) for Fire_speed_pid
    shoot.o(i.virtual_encoders_shoot) refers to shoot.o(.data) for Encoders_shoot
    main.o(i.main) refers to stm32f4xx_it.o(i.cycleCounterInit) for cycleCounterInit
    main.o(i.main) refers to misc.o(i.NVIC_PriorityGroupConfig) for NVIC_PriorityGroupConfig
    main.o(i.main) refers to usart.o(i.usart_init) for usart_init
    main.o(i.main) refers to comm_umpire.o(i.Comm_umpire_Init) for Comm_umpire_Init
    main.o(i.main) refers to pwm.o(i.TIM3_PWM_Init) for TIM3_PWM_Init
    main.o(i.main) refers to led.o(i.Laser_Init) for Laser_Init
    main.o(i.main) refers to led.o(i.LED_Init) for LED_Init
    main.o(i.main) refers to digital.o(i.digital_init) for digital_init
    main.o(i.main) refers to can1.o(i.CAN1_Configuration) for CAN1_Configuration
    main.o(i.main) refers to remotecontrol.o(i.RC_Init) for RC_Init
    main.o(i.main) refers to spi.o(i.SPI5_Init) for SPI5_Init
    main.o(i.main) refers to mpu6500.o(i.MPU6500_Init) for MPU6500_Init
    main.o(i.main) refers to mpu6500.o(i.IMU_Init) for IMU_Init
    main.o(i.main) refers to timer.o(i.TIM4_Int_Init) for TIM4_Int_Init
    main.o(i.main) refers to pid.o(i.Total_PID_Init) for Total_PID_Init
    main.o(i.main) refers to can2.o(i.CAN2_Configuration) for CAN2_Configuration
    main.o(i.main) refers to shoot.o(i.Gimbal_Ctrl_init) for Gimbal_Ctrl_init
    main.o(i.main) refers to power_ctrl.o(i.power_ctrl_configuration) for power_ctrl_configuration
    main.o(i.main) refers to fric.o(i.fric_PWM_configuration) for fric_PWM_configuration
    main.o(i.main) refers to delay.o(i.delay_ms) for delay_ms
    main.o(i.main) refers to imu.o(i.IMUSO3Thread) for IMUSO3Thread
    main.o(i.main) refers to imu.o(i.IMU_Temp_Ctrl) for IMU_Temp_Ctrl
    main.o(i.main) refers to user_api.o(i.Get_Ctrl_Data) for Get_Ctrl_Data
    main.o(i.main) refers to user_api.o(i.Shoot_Ctrl) for Shoot_Ctrl
    main.o(i.main) refers to user_api.o(i.Stop_Chassis_Task) for Stop_Chassis_Task
    main.o(i.main) refers to can1.o(i.CAN1_Send_Msg_gimbal) for CAN1_Send_Msg_gimbal
    main.o(i.main) refers to led.o(i.laser_off) for laser_off
    main.o(i.main) refers to fric.o(i.fric_off) for fric_off
    main.o(i.main) refers to user_api.o(i.Chassis_Task) for Chassis_Task
    main.o(i.main) refers to shoot.o(i.Gimbal_Ctrl) for Gimbal_Ctrl
    main.o(i.main) refers to shoot.o(i.Chassis_AutoFollow) for Chassis_AutoFollow
    main.o(i.main) refers to shoot.o(i.shoot_control_loop) for shoot_control_loop
    main.o(i.main) refers to shoot.o(i.Twist) for Twist
    main.o(i.main) refers to system_stm32f4xx.o(.data) for SystemCoreClock
    main.o(i.main) refers to timer.o(.data) for Flag500Hz
    main.o(i.main) refers to main.o(.data) for loopcnt
    main.o(i.main) refers to remotecontrol.o(.bss) for RC_Ctl
    main.o(i.main) refers to user_api.o(.bss) for Control_data
    main.o(i.main) refers to shoot.o(.data) for targetSpeed
    stm32f4xx_it.o(i.SysTick_Handler) refers to stm32f4xx_it.o(.data) for sysTickUptime
    stm32f4xx_it.o(i.cycleCounterInit) refers to stm32f4xx_rcc.o(i.RCC_GetClocksFreq) for RCC_GetClocksFreq
    stm32f4xx_it.o(i.cycleCounterInit) refers to stm32f4xx_it.o(.data) for usTicks
    stm32f4xx_it.o(i.micros) refers to stm32f4xx_it.o(.data) for sysTickUptime
    stm32f4xx_it.o(i.millis) refers to stm32f4xx_it.o(.data) for sysTickUptime
    use_no_semi_2.o(.text) refers (Special) to use_no_semi.o(.text) for __use_no_semihosting_swi
    __2printf.o(.text) refers to _printf_char_file.o(.text) for _printf_char_file
    __2printf.o(.text) refers to usart.o(.data) for __stdout
    noretval__2printf.o(.text) refers to _printf_char_file.o(.text) for _printf_char_file
    noretval__2printf.o(.text) refers to usart.o(.data) for __stdout
    __printf.o(.text) refers to _printf_percent.o(.ARM.Collect$$_printf_percent$$00000000) for _printf_percent
    __printf_flags.o(.text) refers to _printf_percent.o(.ARM.Collect$$_printf_percent$$00000000) for _printf_percent
    __printf_flags.o(.text) refers to __printf_flags.o(.constdata) for .constdata
    __printf_ss.o(.text) refers to _printf_percent.o(.ARM.Collect$$_printf_percent$$00000000) for _printf_percent
    __printf_flags_ss.o(.text) refers to _printf_percent.o(.ARM.Collect$$_printf_percent$$00000000) for _printf_percent
    __printf_flags_ss.o(.text) refers to __printf_flags_ss.o(.constdata) for .constdata
    __printf_wp.o(.text) refers to __printf_wp.o(i._is_digit) for _is_digit
    __printf_wp.o(.text) refers to _printf_percent.o(.ARM.Collect$$_printf_percent$$00000000) for _printf_percent
    __printf_flags_wp.o(.text) refers to __printf_wp.o(i._is_digit) for _is_digit
    __printf_flags_wp.o(.text) refers to _printf_percent.o(.ARM.Collect$$_printf_percent$$00000000) for _printf_percent
    __printf_flags_wp.o(.text) refers to __printf_flags_wp.o(.constdata) for .constdata
    __printf_ss_wp.o(.text) refers to __printf_wp.o(i._is_digit) for _is_digit
    __printf_ss_wp.o(.text) refers to _printf_percent.o(.ARM.Collect$$_printf_percent$$00000000) for _printf_percent
    __printf_flags_ss_wp.o(.text) refers to __printf_wp.o(i._is_digit) for _is_digit
    __printf_flags_ss_wp.o(.text) refers to _printf_percent.o(.ARM.Collect$$_printf_percent$$00000000) for _printf_percent
    __printf_flags_ss_wp.o(.text) refers to __printf_flags_ss_wp.o(.constdata) for .constdata
    _printf_f.o(.ARM.Collect$$_printf_percent$$00000003) refers (Weak) to printf1.o(x$fpl$printf1) for _printf_fp_dec
    _printf_percent.o(.ARM.Collect$$_printf_percent$$00000000) refers (Special) to _printf_percent_end.o(.ARM.Collect$$_printf_percent$$00000017) for _printf_percent_end
    __main.o(!!!main) refers to __rtentry.o(.ARM.Collect$$rtentry$$00000000) for __rt_entry
    d2f.o(x$fpl$d2f) refers (Special) to usenofp.o(x$fpl$usenofp) for __I$use$fp
    d2f.o(x$fpl$d2f) refers to fretinf.o(x$fpl$fretinf) for __fpl_fretinf
    d2f.o(x$fpl$d2f) refers to dnaninf.o(x$fpl$dnaninf) for __fpl_dnaninf
    daddsub_clz.o(x$fpl$dadd) refers (Special) to usenofp.o(x$fpl$usenofp) for __I$use$fp
    daddsub_clz.o(x$fpl$dadd) refers to daddsub_clz.o(x$fpl$dsub) for _dsub1
    daddsub_clz.o(x$fpl$dadd) refers to dretinf.o(x$fpl$dretinf) for __fpl_dretinf
    daddsub_clz.o(x$fpl$dadd) refers to dnaninf.o(x$fpl$dnaninf) for __fpl_dnaninf
    daddsub_clz.o(x$fpl$drsb) refers (Special) to usenofp.o(x$fpl$usenofp) for __I$use$fp
    daddsub_clz.o(x$fpl$drsb) refers to daddsub_clz.o(x$fpl$dadd) for _dadd1
    daddsub_clz.o(x$fpl$drsb) refers to daddsub_clz.o(x$fpl$dsub) for _dsub1
    daddsub_clz.o(x$fpl$dsub) refers (Special) to usenofp.o(x$fpl$usenofp) for __I$use$fp
    daddsub_clz.o(x$fpl$dsub) refers to daddsub_clz.o(x$fpl$dadd) for _dadd1
    daddsub_clz.o(x$fpl$dsub) refers to dnaninf.o(x$fpl$dnaninf) for __fpl_dnaninf
    ddiv.o(x$fpl$drdiv) refers (Special) to usenofp.o(x$fpl$usenofp) for __I$use$fp
    ddiv.o(x$fpl$drdiv) refers to ddiv.o(x$fpl$ddiv) for ddiv_entry
    ddiv.o(x$fpl$ddiv) refers (Special) to usenofp.o(x$fpl$usenofp) for __I$use$fp
    ddiv.o(x$fpl$ddiv) refers to dretinf.o(x$fpl$dretinf) for __fpl_dretinf
    ddiv.o(x$fpl$ddiv) refers to dnaninf.o(x$fpl$dnaninf) for __fpl_dnaninf
    dfix.o(x$fpl$dfix) refers (Special) to usenofp.o(x$fpl$usenofp) for __I$use$fp
    dfix.o(x$fpl$dfix) refers to dnaninf.o(x$fpl$dnaninf) for __fpl_dnaninf
    dfix.o(x$fpl$dfixr) refers (Special) to usenofp.o(x$fpl$usenofp) for __I$use$fp
    dfix.o(x$fpl$dfixr) refers to dnaninf.o(x$fpl$dnaninf) for __fpl_dnaninf
    dflt_clz.o(x$fpl$dfltu) refers (Special) to usenofp.o(x$fpl$usenofp) for __I$use$fp
    dflt_clz.o(x$fpl$dflt) refers (Special) to usenofp.o(x$fpl$usenofp) for __I$use$fp
    dflt_clz.o(x$fpl$dfltn) refers (Special) to usenofp.o(x$fpl$usenofp) for __I$use$fp
    dleqf.o(x$fpl$dleqf) refers (Special) to usenofp.o(x$fpl$usenofp) for __I$use$fp
    dleqf.o(x$fpl$dleqf) refers to dnaninf.o(x$fpl$dnaninf) for __fpl_dnaninf
    dleqf.o(x$fpl$dleqf) refers to dcmpi.o(x$fpl$dcmpinf) for __fpl_dcmp_Inf
    dmul.o(x$fpl$dmul) refers (Special) to usenofp.o(x$fpl$usenofp) for __I$use$fp
    dmul.o(x$fpl$dmul) refers to dretinf.o(x$fpl$dretinf) for __fpl_dretinf
    dmul.o(x$fpl$dmul) refers to dnaninf.o(x$fpl$dnaninf) for __fpl_dnaninf
    f2d.o(x$fpl$f2d) refers (Special) to usenofp.o(x$fpl$usenofp) for __I$use$fp
    f2d.o(x$fpl$f2d) refers to fnaninf.o(x$fpl$fnaninf) for __fpl_fnaninf
    f2d.o(x$fpl$f2d) refers to dretinf.o(x$fpl$dretinf) for __fpl_dretinf
    printf1.o(x$fpl$printf1) refers to _printf_fp_dec.o(.text) for _printf_fp_dec_real
    asinf.o(i.__hardfp_asinf) refers (Special) to usenofp.o(x$fpl$usenofp) for __I$use$fp
    asinf.o(i.__hardfp_asinf) refers to sqrtf.o(i.sqrtf) for sqrtf
    asinf.o(i.__hardfp_asinf) refers to fpclassifyf.o(i.__ARM_fpclassifyf) for __ARM_fpclassifyf
    asinf.o(i.__hardfp_asinf) refers to funder.o(i.__mathlib_flt_underflow) for __mathlib_flt_underflow
    asinf.o(i.__hardfp_asinf) refers to funder.o(i.__mathlib_flt_infnan) for __mathlib_flt_infnan
    asinf.o(i.__hardfp_asinf) refers to _rserrno.o(.text) for __set_errno
    asinf.o(i.__hardfp_asinf) refers to funder.o(i.__mathlib_flt_invalid) for __mathlib_flt_invalid
    asinf.o(i.__softfp_asinf) refers (Special) to usenofp.o(x$fpl$usenofp) for __I$use$fp
    asinf.o(i.__softfp_asinf) refers to asinf.o(i.__hardfp_asinf) for __hardfp_asinf
    asinf.o(i.asinf) refers (Special) to usenofp.o(x$fpl$usenofp) for __I$use$fp
    asinf.o(i.asinf) refers to asinf.o(i.__hardfp_asinf) for __hardfp_asinf
    asinf_x.o(i.____hardfp_asinf$lsc) refers (Special) to usenofp.o(x$fpl$usenofp) for __I$use$fp
    asinf_x.o(i.____hardfp_asinf$lsc) refers to sqrtf.o(i.sqrtf) for sqrtf
    asinf_x.o(i.____hardfp_asinf$lsc) refers to funder.o(i.__mathlib_flt_infnan) for __mathlib_flt_infnan
    asinf_x.o(i.____hardfp_asinf$lsc) refers to _rserrno.o(.text) for __set_errno
    asinf_x.o(i.____softfp_asinf$lsc) refers (Special) to usenofp.o(x$fpl$usenofp) for __I$use$fp
    asinf_x.o(i.____softfp_asinf$lsc) refers to asinf_x.o(i.____hardfp_asinf$lsc) for ____hardfp_asinf$lsc
    asinf_x.o(i.__asinf$lsc) refers (Special) to usenofp.o(x$fpl$usenofp) for __I$use$fp
    asinf_x.o(i.__asinf$lsc) refers to asinf_x.o(i.____hardfp_asinf$lsc) for ____hardfp_asinf$lsc
    atan2.o(i.__hardfp_atan2) refers (Special) to usenofp.o(x$fpl$usenofp) for __I$use$fp
    atan2.o(i.__hardfp_atan2) refers to dunder.o(i.__mathlib_dbl_infnan2) for __mathlib_dbl_infnan2
    atan2.o(i.__hardfp_atan2) refers to atan.o(i.atan) for atan
    atan2.o(i.__hardfp_atan2) refers to basic.o(x$fpl$basic) for __aeabi_dneg
    atan2.o(i.__hardfp_atan2) refers to ddiv.o(x$fpl$ddiv) for __aeabi_ddiv
    atan2.o(i.__hardfp_atan2) refers to fabs.o(i.fabs) for fabs
    atan2.o(i.__hardfp_atan2) refers to daddsub_clz.o(x$fpl$dsub) for __aeabi_dsub
    atan2.o(i.__hardfp_atan2) refers to deqf.o(x$fpl$deqf) for __aeabi_cdcmpeq
    atan2.o(i.__hardfp_atan2) refers to _rserrno.o(.text) for __set_errno
    atan2.o(i.__hardfp_atan2) refers to daddsub_clz.o(x$fpl$drsb) for __aeabi_drsub
    atan2.o(i.__hardfp_atan2) refers to qnan.o(.constdata) for __mathlib_zero
    atan2.o(i.__softfp_atan2) refers (Special) to usenofp.o(x$fpl$usenofp) for __I$use$fp
    atan2.o(i.__softfp_atan2) refers to atan2.o(i.__hardfp_atan2) for __hardfp_atan2
    atan2.o(i.atan2) refers (Special) to usenofp.o(x$fpl$usenofp) for __I$use$fp
    atan2.o(i.atan2) refers to atan2.o(i.__hardfp_atan2) for __hardfp_atan2
    atan2_x.o(i.____hardfp_atan2$lsc) refers (Special) to usenofp.o(x$fpl$usenofp) for __I$use$fp
    atan2_x.o(i.____hardfp_atan2$lsc) refers to dunder.o(i.__mathlib_dbl_infnan2) for __mathlib_dbl_infnan2
    atan2_x.o(i.____hardfp_atan2$lsc) refers to atan.o(i.atan) for atan
    atan2_x.o(i.____hardfp_atan2$lsc) refers to _rserrno.o(.text) for __set_errno
    atan2_x.o(i.____hardfp_atan2$lsc) refers to basic.o(x$fpl$basic) for __aeabi_dneg
    atan2_x.o(i.____hardfp_atan2$lsc) refers to ddiv.o(x$fpl$ddiv) for __aeabi_ddiv
    atan2_x.o(i.____hardfp_atan2$lsc) refers to fabs.o(i.fabs) for fabs
    atan2_x.o(i.____hardfp_atan2$lsc) refers to daddsub_clz.o(x$fpl$dsub) for __aeabi_dsub
    atan2_x.o(i.____hardfp_atan2$lsc) refers to deqf.o(x$fpl$deqf) for __aeabi_cdcmpeq
    atan2_x.o(i.____hardfp_atan2$lsc) refers to daddsub_clz.o(x$fpl$drsb) for __aeabi_drsub
    atan2_x.o(i.____hardfp_atan2$lsc) refers to qnan.o(.constdata) for __mathlib_zero
    atan2_x.o(i.____softfp_atan2$lsc) refers (Special) to usenofp.o(x$fpl$usenofp) for __I$use$fp
    atan2_x.o(i.____softfp_atan2$lsc) refers to atan2_x.o(i.____hardfp_atan2$lsc) for ____hardfp_atan2$lsc
    atan2_x.o(i.__atan2$lsc) refers (Special) to usenofp.o(x$fpl$usenofp) for __I$use$fp
    atan2_x.o(i.__atan2$lsc) refers to atan2_x.o(i.____hardfp_atan2$lsc) for ____hardfp_atan2$lsc
    atan2f.o(i.__hardfp_atan2f) refers (Special) to usenofp.o(x$fpl$usenofp) for __I$use$fp
    atan2f.o(i.__hardfp_atan2f) refers to fpclassifyf.o(i.__ARM_fpclassifyf) for __ARM_fpclassifyf
    atan2f.o(i.__hardfp_atan2f) refers to funder.o(i.__mathlib_flt_underflow) for __mathlib_flt_underflow
    atan2f.o(i.__hardfp_atan2f) refers to _rserrno.o(.text) for __set_errno
    atan2f.o(i.__hardfp_atan2f) refers to funder.o(i.__mathlib_flt_infnan2) for __mathlib_flt_infnan2
    atan2f.o(i.__softfp_atan2f) refers (Special) to usenofp.o(x$fpl$usenofp) for __I$use$fp
    atan2f.o(i.__softfp_atan2f) refers to atan2f.o(i.__hardfp_atan2f) for __hardfp_atan2f
    atan2f.o(i.atan2f) refers (Special) to usenofp.o(x$fpl$usenofp) for __I$use$fp
    atan2f.o(i.atan2f) refers to atan2f.o(i.__hardfp_atan2f) for __hardfp_atan2f
    atan2f_x.o(i.____hardfp_atan2f$lsc) refers (Special) to usenofp.o(x$fpl$usenofp) for __I$use$fp
    atan2f_x.o(i.____hardfp_atan2f$lsc) refers to fpclassifyf.o(i.__ARM_fpclassifyf) for __ARM_fpclassifyf
    atan2f_x.o(i.____hardfp_atan2f$lsc) refers to _rserrno.o(.text) for __set_errno
    atan2f_x.o(i.____hardfp_atan2f$lsc) refers to funder.o(i.__mathlib_flt_infnan2) for __mathlib_flt_infnan2
    atan2f_x.o(i.____softfp_atan2f$lsc) refers (Special) to usenofp.o(x$fpl$usenofp) for __I$use$fp
    atan2f_x.o(i.____softfp_atan2f$lsc) refers to atan2f_x.o(i.____hardfp_atan2f$lsc) for ____hardfp_atan2f$lsc
    atan2f_x.o(i.__atan2f$lsc) refers (Special) to usenofp.o(x$fpl$usenofp) for __I$use$fp
    atan2f_x.o(i.__atan2f$lsc) refers to atan2f_x.o(i.____hardfp_atan2f$lsc) for ____hardfp_atan2f$lsc
    cosf.o(i.__hardfp_cosf) refers (Special) to usenofp.o(x$fpl$usenofp) for __I$use$fp
    cosf.o(i.__hardfp_cosf) refers to rredf.o(i.__mathlib_rredf2) for __mathlib_rredf2
    cosf.o(i.__hardfp_cosf) refers to _rserrno.o(.text) for __set_errno
    cosf.o(i.__hardfp_cosf) refers to funder.o(i.__mathlib_flt_invalid) for __mathlib_flt_invalid
    cosf.o(i.__hardfp_cosf) refers to funder.o(i.__mathlib_flt_infnan) for __mathlib_flt_infnan
    cosf.o(i.__softfp_cosf) refers (Special) to usenofp.o(x$fpl$usenofp) for __I$use$fp
    cosf.o(i.__softfp_cosf) refers to cosf.o(i.__hardfp_cosf) for __hardfp_cosf
    cosf.o(i.cosf) refers (Special) to usenofp.o(x$fpl$usenofp) for __I$use$fp
    cosf.o(i.cosf) refers to cosf.o(i.__hardfp_cosf) for __hardfp_cosf
    cosf_x.o(i.____hardfp_cosf$lsc) refers (Special) to usenofp.o(x$fpl$usenofp) for __I$use$fp
    cosf_x.o(i.____hardfp_cosf$lsc) refers to rredf.o(i.__mathlib_rredf2) for __mathlib_rredf2
    cosf_x.o(i.____hardfp_cosf$lsc) refers to _rserrno.o(.text) for __set_errno
    cosf_x.o(i.____hardfp_cosf$lsc) refers to funder.o(i.__mathlib_flt_infnan) for __mathlib_flt_infnan
    cosf_x.o(i.____softfp_cosf$lsc) refers (Special) to usenofp.o(x$fpl$usenofp) for __I$use$fp
    cosf_x.o(i.____softfp_cosf$lsc) refers to cosf_x.o(i.____hardfp_cosf$lsc) for ____hardfp_cosf$lsc
    cosf_x.o(i.__cosf$lsc) refers (Special) to usenofp.o(x$fpl$usenofp) for __I$use$fp
    cosf_x.o(i.__cosf$lsc) refers to cosf_x.o(i.____hardfp_cosf$lsc) for ____hardfp_cosf$lsc
    fabs.o(i.__hardfp_fabs) refers (Special) to usenofp.o(x$fpl$usenofp) for __I$use$fp
    fabs.o(i.__softfp_fabs) refers (Special) to usenofp.o(x$fpl$usenofp) for __I$use$fp
    fabs.o(i.fabs) refers (Special) to usenofp.o(x$fpl$usenofp) for __I$use$fp
    sinf.o(i.__hardfp_sinf) refers (Special) to usenofp.o(x$fpl$usenofp) for __I$use$fp
    sinf.o(i.__hardfp_sinf) refers to rredf.o(i.__mathlib_rredf2) for __mathlib_rredf2
    sinf.o(i.__hardfp_sinf) refers to fpclassifyf.o(i.__ARM_fpclassifyf) for __ARM_fpclassifyf
    sinf.o(i.__hardfp_sinf) refers to funder.o(i.__mathlib_flt_underflow) for __mathlib_flt_underflow
    sinf.o(i.__hardfp_sinf) refers to _rserrno.o(.text) for __set_errno
    sinf.o(i.__hardfp_sinf) refers to funder.o(i.__mathlib_flt_invalid) for __mathlib_flt_invalid
    sinf.o(i.__hardfp_sinf) refers to funder.o(i.__mathlib_flt_infnan) for __mathlib_flt_infnan
    sinf.o(i.__softfp_sinf) refers (Special) to usenofp.o(x$fpl$usenofp) for __I$use$fp
    sinf.o(i.__softfp_sinf) refers to sinf.o(i.__hardfp_sinf) for __hardfp_sinf
    sinf.o(i.sinf) refers (Special) to usenofp.o(x$fpl$usenofp) for __I$use$fp
    sinf.o(i.sinf) refers to sinf.o(i.__hardfp_sinf) for __hardfp_sinf
    sinf_x.o(i.____hardfp_sinf$lsc) refers (Special) to usenofp.o(x$fpl$usenofp) for __I$use$fp
    sinf_x.o(i.____hardfp_sinf$lsc) refers to rredf.o(i.__mathlib_rredf2) for __mathlib_rredf2
    sinf_x.o(i.____hardfp_sinf$lsc) refers to _rserrno.o(.text) for __set_errno
    sinf_x.o(i.____hardfp_sinf$lsc) refers to funder.o(i.__mathlib_flt_infnan) for __mathlib_flt_infnan
    sinf_x.o(i.____softfp_sinf$lsc) refers (Special) to usenofp.o(x$fpl$usenofp) for __I$use$fp
    sinf_x.o(i.____softfp_sinf$lsc) refers to sinf_x.o(i.____hardfp_sinf$lsc) for ____hardfp_sinf$lsc
    sinf_x.o(i.__sinf$lsc) refers (Special) to usenofp.o(x$fpl$usenofp) for __I$use$fp
    sinf_x.o(i.__sinf$lsc) refers to sinf_x.o(i.____hardfp_sinf$lsc) for ____hardfp_sinf$lsc
    sqrt.o(i.__hardfp_sqrt) refers (Special) to usenofp.o(x$fpl$usenofp) for __I$use$fp
    sqrt.o(i.__hardfp_sqrt) refers to dsqrt_umaal.o(x$fpl$dsqrt) for _dsqrt
    sqrt.o(i.__hardfp_sqrt) refers to _rserrno.o(.text) for __set_errno
    sqrt.o(i.__softfp_sqrt) refers (Special) to usenofp.o(x$fpl$usenofp) for __I$use$fp
    sqrt.o(i.__softfp_sqrt) refers to dsqrt_umaal.o(x$fpl$dsqrt) for _dsqrt
    sqrt.o(i.__softfp_sqrt) refers to _rserrno.o(.text) for __set_errno
    sqrt.o(i.sqrt) refers (Special) to usenofp.o(x$fpl$usenofp) for __I$use$fp
    sqrt.o(i.sqrt) refers to dsqrt_umaal.o(x$fpl$dsqrt) for _dsqrt
    sqrt.o(i.sqrt) refers to _rserrno.o(.text) for __set_errno
    sqrt_x.o(i.____hardfp_sqrt$lsc) refers (Special) to usenofp.o(x$fpl$usenofp) for __I$use$fp
    sqrt_x.o(i.____hardfp_sqrt$lsc) refers to dleqf.o(x$fpl$dleqf) for __aeabi_cdcmple
    sqrt_x.o(i.____hardfp_sqrt$lsc) refers to _rserrno.o(.text) for __set_errno
    sqrt_x.o(i.____hardfp_sqrt$lsc) refers to dsqrt_umaal.o(x$fpl$dsqrt) for _dsqrt
    sqrt_x.o(i.____softfp_sqrt$lsc) refers (Special) to usenofp.o(x$fpl$usenofp) for __I$use$fp
    sqrt_x.o(i.____softfp_sqrt$lsc) refers to dleqf.o(x$fpl$dleqf) for __aeabi_cdcmple
    sqrt_x.o(i.____softfp_sqrt$lsc) refers to _rserrno.o(.text) for __set_errno
    sqrt_x.o(i.____softfp_sqrt$lsc) refers to dsqrt_umaal.o(x$fpl$dsqrt) for _dsqrt
    sqrt_x.o(i.__sqrt$lsc) refers (Special) to usenofp.o(x$fpl$usenofp) for __I$use$fp
    sqrt_x.o(i.__sqrt$lsc) refers to dleqf.o(x$fpl$dleqf) for __aeabi_cdcmple
    sqrt_x.o(i.__sqrt$lsc) refers to _rserrno.o(.text) for __set_errno
    sqrt_x.o(i.__sqrt$lsc) refers to dsqrt_umaal.o(x$fpl$dsqrt) for _dsqrt
    tanf.o(i.__hardfp_tanf) refers (Special) to usenofp.o(x$fpl$usenofp) for __I$use$fp
    tanf.o(i.__hardfp_tanf) refers to rredf.o(i.__mathlib_rredf2) for __mathlib_rredf2
    tanf.o(i.__hardfp_tanf) refers to fpclassifyf.o(i.__ARM_fpclassifyf) for __ARM_fpclassifyf
    tanf.o(i.__hardfp_tanf) refers to funder.o(i.__mathlib_flt_underflow) for __mathlib_flt_underflow
    tanf.o(i.__hardfp_tanf) refers to _rserrno.o(.text) for __set_errno
    tanf.o(i.__hardfp_tanf) refers to funder.o(i.__mathlib_flt_invalid) for __mathlib_flt_invalid
    tanf.o(i.__hardfp_tanf) refers to funder.o(i.__mathlib_flt_infnan) for __mathlib_flt_infnan
    tanf.o(i.__softfp_tanf) refers (Special) to usenofp.o(x$fpl$usenofp) for __I$use$fp
    tanf.o(i.__softfp_tanf) refers to tanf.o(i.__hardfp_tanf) for __hardfp_tanf
    tanf.o(i.tanf) refers (Special) to usenofp.o(x$fpl$usenofp) for __I$use$fp
    tanf.o(i.tanf) refers to tanf.o(i.__hardfp_tanf) for __hardfp_tanf
    tanf_x.o(i.____hardfp_tanf$lsc) refers (Special) to usenofp.o(x$fpl$usenofp) for __I$use$fp
    tanf_x.o(i.____hardfp_tanf$lsc) refers to rredf.o(i.__mathlib_rredf2) for __mathlib_rredf2
    tanf_x.o(i.____hardfp_tanf$lsc) refers to _rserrno.o(.text) for __set_errno
    tanf_x.o(i.____hardfp_tanf$lsc) refers to funder.o(i.__mathlib_flt_infnan) for __mathlib_flt_infnan
    tanf_x.o(i.____softfp_tanf$lsc) refers (Special) to usenofp.o(x$fpl$usenofp) for __I$use$fp
    tanf_x.o(i.____softfp_tanf$lsc) refers to tanf_x.o(i.____hardfp_tanf$lsc) for ____hardfp_tanf$lsc
    tanf_x.o(i.__tanf$lsc) refers (Special) to usenofp.o(x$fpl$usenofp) for __I$use$fp
    tanf_x.o(i.__tanf$lsc) refers to tanf_x.o(i.____hardfp_tanf$lsc) for ____hardfp_tanf$lsc
    __rtentry.o(.ARM.Collect$$rtentry$$00000000) refers (Special) to __rtentry2.o(.ARM.Collect$$rtentry$$0000000A) for __rt_entry_li
    __rtentry.o(.ARM.Collect$$rtentry$$00000000) refers (Special) to __rtentry2.o(.ARM.Collect$$rtentry$$0000000D) for __rt_entry_main
    __rtentry.o(.ARM.Collect$$rtentry$$00000000) refers (Special) to __rtentry2.o(.ARM.Collect$$rtentry$$0000000C) for __rt_entry_postli_1
    __rtentry.o(.ARM.Collect$$rtentry$$00000000) refers (Special) to __rtentry2.o(.ARM.Collect$$rtentry$$00000009) for __rt_entry_postsh_1
    __rtentry.o(.ARM.Collect$$rtentry$$00000000) refers (Special) to __rtentry2.o(.ARM.Collect$$rtentry$$00000002) for __rt_entry_presh_1
    __rtentry.o(.ARM.Collect$$rtentry$$00000000) refers (Special) to __rtentry4.o(.ARM.Collect$$rtentry$$00000004) for __rt_entry_sh
    _rserrno.o(.text) refers to rt_errno_addr_intlibspace.o(.text) for __aeabi_errno_addr
    _printf_fp_dec.o(.text) refers (Special) to usenofp.o(x$fpl$usenofp) for __I$use$fp
    _printf_fp_dec.o(.text) refers (Special) to lc_numeric_c.o(locale$$code) for _get_lc_numeric
    _printf_fp_dec.o(.text) refers to bigflt0.o(.text) for _btod_etento
    _printf_fp_dec.o(.text) refers to btod.o(CL$$btod_d2e) for _btod_d2e
    _printf_fp_dec.o(.text) refers to btod.o(CL$$btod_ediv) for _btod_ediv
    _printf_fp_dec.o(.text) refers to btod.o(CL$$btod_emul) for _btod_emul
    _printf_fp_dec.o(.text) refers to lludiv10.o(.text) for _ll_udiv10
    _printf_fp_dec.o(.text) refers to fpclassify.o(i.__ARM_fpclassify) for __ARM_fpclassify
    _printf_fp_dec.o(.text) refers to _printf_fp_infnan.o(.text) for _printf_fp_infnan
    _printf_fp_dec.o(.text) refers to rt_locale_intlibspace.o(.text) for __rt_locale
    _printf_char_file.o(.text) refers to _printf_char_common.o(.text) for _printf_char_common
    _printf_char_file.o(.text) refers to ferror.o(.text) for ferror
    _printf_char_file.o(.text) refers to usart.o(i.fputc) for fputc
    basic.o(x$fpl$basic) refers (Special) to usenofp.o(x$fpl$usenofp) for __I$use$fp
    dcmpi.o(x$fpl$dcmpinf) refers (Special) to usenofp.o(x$fpl$usenofp) for __I$use$fp
    deqf.o(x$fpl$deqf) refers (Special) to usenofp.o(x$fpl$usenofp) for __I$use$fp
    deqf.o(x$fpl$deqf) refers to dnaninf.o(x$fpl$dnaninf) for __fpl_dnaninf
    deqf.o(x$fpl$deqf) refers to dcmpi.o(x$fpl$dcmpinf) for __fpl_dcmp_Inf
    dnaninf.o(x$fpl$dnaninf) refers (Special) to usenofp.o(x$fpl$usenofp) for __I$use$fp
    dretinf.o(x$fpl$dretinf) refers (Special) to usenofp.o(x$fpl$usenofp) for __I$use$fp
    dsqrt_umaal.o(x$fpl$dsqrt) refers (Special) to usenofp.o(x$fpl$usenofp) for __I$use$fp
    dsqrt_umaal.o(x$fpl$dsqrt) refers to dnaninf.o(x$fpl$dnaninf) for __fpl_dnaninf
    fnaninf.o(x$fpl$fnaninf) refers (Special) to usenofp.o(x$fpl$usenofp) for __I$use$fp
    fretinf.o(x$fpl$fretinf) refers (Special) to usenofp.o(x$fpl$usenofp) for __I$use$fp
    atan.o(i.__hardfp_atan) refers (Special) to usenofp.o(x$fpl$usenofp) for __I$use$fp
    atan.o(i.__hardfp_atan) refers to dunder.o(i.__mathlib_dbl_infnan) for __mathlib_dbl_infnan
    atan.o(i.__hardfp_atan) refers to fpclassify.o(i.__ARM_fpclassify) for __ARM_fpclassify
    atan.o(i.__hardfp_atan) refers to dunder.o(i.__mathlib_dbl_underflow) for __mathlib_dbl_underflow
    atan.o(i.__hardfp_atan) refers to fabs.o(i.fabs) for fabs
    atan.o(i.__hardfp_atan) refers to daddsub_clz.o(x$fpl$dadd) for __aeabi_dadd
    atan.o(i.__hardfp_atan) refers to dmul.o(x$fpl$dmul) for __aeabi_dmul
    atan.o(i.__hardfp_atan) refers to daddsub_clz.o(x$fpl$dsub) for __aeabi_dsub
    atan.o(i.__hardfp_atan) refers to ddiv.o(x$fpl$ddiv) for __aeabi_ddiv
    atan.o(i.__hardfp_atan) refers to poly.o(i.__kernel_poly) for __kernel_poly
    atan.o(i.__hardfp_atan) refers to daddsub_clz.o(x$fpl$drsb) for __aeabi_drsub
    atan.o(i.__hardfp_atan) refers to basic.o(x$fpl$basic) for __aeabi_dneg
    atan.o(i.__hardfp_atan) refers to atan.o(.constdata) for .constdata
    atan.o(i.__softfp_atan) refers (Special) to usenofp.o(x$fpl$usenofp) for __I$use$fp
    atan.o(i.__softfp_atan) refers to atan.o(i.__hardfp_atan) for __hardfp_atan
    atan.o(i.atan) refers (Special) to usenofp.o(x$fpl$usenofp) for __I$use$fp
    atan.o(i.atan) refers to atan.o(i.__hardfp_atan) for __hardfp_atan
    atan.o(.constdata) refers (Special) to usenofp.o(x$fpl$usenofp) for __I$use$fp
    atan_x.o(i.____hardfp_atan$lsc) refers (Special) to usenofp.o(x$fpl$usenofp) for __I$use$fp
    atan_x.o(i.____hardfp_atan$lsc) refers to dunder.o(i.__mathlib_dbl_infnan) for __mathlib_dbl_infnan
    atan_x.o(i.____hardfp_atan$lsc) refers to fabs.o(i.fabs) for fabs
    atan_x.o(i.____hardfp_atan$lsc) refers to daddsub_clz.o(x$fpl$dadd) for __aeabi_dadd
    atan_x.o(i.____hardfp_atan$lsc) refers to dmul.o(x$fpl$dmul) for __aeabi_dmul
    atan_x.o(i.____hardfp_atan$lsc) refers to daddsub_clz.o(x$fpl$dsub) for __aeabi_dsub
    atan_x.o(i.____hardfp_atan$lsc) refers to ddiv.o(x$fpl$ddiv) for __aeabi_ddiv
    atan_x.o(i.____hardfp_atan$lsc) refers to poly.o(i.__kernel_poly) for __kernel_poly
    atan_x.o(i.____hardfp_atan$lsc) refers to daddsub_clz.o(x$fpl$drsb) for __aeabi_drsub
    atan_x.o(i.____hardfp_atan$lsc) refers to basic.o(x$fpl$basic) for __aeabi_dneg
    atan_x.o(i.____hardfp_atan$lsc) refers to atan_x.o(.constdata) for .constdata
    atan_x.o(i.____softfp_atan$lsc) refers (Special) to usenofp.o(x$fpl$usenofp) for __I$use$fp
    atan_x.o(i.____softfp_atan$lsc) refers to atan_x.o(i.____hardfp_atan$lsc) for ____hardfp_atan$lsc
    atan_x.o(i.__atan$lsc) refers (Special) to usenofp.o(x$fpl$usenofp) for __I$use$fp
    atan_x.o(i.__atan$lsc) refers to atan_x.o(i.____hardfp_atan$lsc) for ____hardfp_atan$lsc
    atan_x.o(.constdata) refers (Special) to usenofp.o(x$fpl$usenofp) for __I$use$fp
    dunder.o(i.__mathlib_dbl_divzero) refers to ddiv.o(x$fpl$ddiv) for __aeabi_ddiv
    dunder.o(i.__mathlib_dbl_infnan) refers to daddsub_clz.o(x$fpl$dadd) for __aeabi_dadd
    dunder.o(i.__mathlib_dbl_infnan2) refers to daddsub_clz.o(x$fpl$dadd) for __aeabi_dadd
    dunder.o(i.__mathlib_dbl_invalid) refers to ddiv.o(x$fpl$ddiv) for __aeabi_ddiv
    dunder.o(i.__mathlib_dbl_overflow) refers to dmul.o(x$fpl$dmul) for __aeabi_dmul
    dunder.o(i.__mathlib_dbl_posinfnan) refers to dmul.o(x$fpl$dmul) for __aeabi_dmul
    dunder.o(i.__mathlib_dbl_underflow) refers to dmul.o(x$fpl$dmul) for __aeabi_dmul
    fpclassifyf.o(i.__ARM_fpclassifyf) refers (Special) to usenofp.o(x$fpl$usenofp) for __I$use$fp
    qnan.o(.constdata) refers (Special) to usenofp.o(x$fpl$usenofp) for __I$use$fp
    rredf.o(i.__mathlib_rredf2) refers (Special) to usenofp.o(x$fpl$usenofp) for __I$use$fp
    rredf.o(i.__mathlib_rredf2) refers to rredf.o(.constdata) for .constdata
    rredf.o(.constdata) refers (Special) to usenofp.o(x$fpl$usenofp) for __I$use$fp
    sqrtf.o(i.__hardfp_sqrtf) refers (Special) to usenofp.o(x$fpl$usenofp) for __I$use$fp
    sqrtf.o(i.__hardfp_sqrtf) refers to _rserrno.o(.text) for __set_errno
    sqrtf.o(i.__softfp_sqrtf) refers (Special) to usenofp.o(x$fpl$usenofp) for __I$use$fp
    sqrtf.o(i.__softfp_sqrtf) refers to _rserrno.o(.text) for __set_errno
    sqrtf.o(i.sqrtf) refers (Special) to usenofp.o(x$fpl$usenofp) for __I$use$fp
    sqrtf.o(i.sqrtf) refers to _rserrno.o(.text) for __set_errno
    sqrtf_x.o(i.____hardfp_sqrtf$lsc) refers (Special) to usenofp.o(x$fpl$usenofp) for __I$use$fp
    sqrtf_x.o(i.____hardfp_sqrtf$lsc) refers to _rserrno.o(.text) for __set_errno
    sqrtf_x.o(i.____softfp_sqrtf$lsc) refers (Special) to usenofp.o(x$fpl$usenofp) for __I$use$fp
    sqrtf_x.o(i.____softfp_sqrtf$lsc) refers to _rserrno.o(.text) for __set_errno
    sqrtf_x.o(i.__sqrtf$lsc) refers (Special) to usenofp.o(x$fpl$usenofp) for __I$use$fp
    sqrtf_x.o(i.__sqrtf$lsc) refers to _rserrno.o(.text) for __set_errno
    __rtentry2.o(.ARM.Collect$$rtentry$$00000008) refers to boardinit2.o(.text) for _platform_post_stackheap_init
    __rtentry2.o(.ARM.Collect$$rtentry$$0000000A) refers to libinit.o(.ARM.Collect$$libinit$$00000000) for __rt_lib_init
    __rtentry2.o(.ARM.Collect$$rtentry$$0000000B) refers to boardinit3.o(.text) for _platform_post_lib_init
    __rtentry2.o(.ARM.Collect$$rtentry$$0000000D) refers to main.o(i.main) for main
    __rtentry2.o(.ARM.Collect$$rtentry$$0000000D) refers to exit.o(.text) for exit
    __rtentry2.o(.ARM.exidx) refers to __rtentry2.o(.ARM.Collect$$rtentry$$00000001) for .ARM.Collect$$rtentry$$00000001
    __rtentry2.o(.ARM.exidx) refers to __rtentry2.o(.ARM.Collect$$rtentry$$00000008) for .ARM.Collect$$rtentry$$00000008
    __rtentry2.o(.ARM.exidx) refers to __rtentry2.o(.ARM.Collect$$rtentry$$0000000A) for .ARM.Collect$$rtentry$$0000000A
    __rtentry2.o(.ARM.exidx) refers to __rtentry2.o(.ARM.Collect$$rtentry$$0000000B) for .ARM.Collect$$rtentry$$0000000B
    __rtentry2.o(.ARM.exidx) refers to __rtentry2.o(.ARM.Collect$$rtentry$$0000000D) for .ARM.Collect$$rtentry$$0000000D
    __rtentry4.o(.ARM.Collect$$rtentry$$00000004) refers to sys_stackheap_outer.o(.text) for __user_setup_stackheap
    __rtentry4.o(.ARM.exidx) refers to __rtentry4.o(.ARM.Collect$$rtentry$$00000004) for .ARM.Collect$$rtentry$$00000004
    rt_locale.o(.text) refers to rt_locale.o(.bss) for __rt_locale_data
    rt_locale_intlibspace.o(.text) refers to libspace.o(.bss) for __libspace_start
    rt_errno_addr.o(.text) refers to rt_errno_addr.o(.bss) for __aeabi_errno_addr_data
    rt_errno_addr_intlibspace.o(.text) refers to libspace.o(.bss) for __libspace_start
    _printf_char_common.o(.text) refers to __printf.o(.text) for __printf
    bigflt0.o(.text) refers (Special) to usenofp.o(x$fpl$usenofp) for __I$use$fp
    bigflt0.o(.text) refers to btod.o(CL$$btod_emul) for _btod_emul
    bigflt0.o(.text) refers to btod.o(CL$$btod_ediv) for _btod_ediv
    bigflt0.o(.text) refers to bigflt0.o(.constdata) for .constdata
    bigflt0.o(.constdata) refers (Special) to usenofp.o(x$fpl$usenofp) for __I$use$fp
    btod.o(CL$$btod_d2e) refers (Special) to usenofp.o(x$fpl$usenofp) for __I$use$fp
    btod.o(CL$$btod_d2e) refers to btod.o(CL$$btod_d2e_norm_op1) for _d2e_norm_op1
    btod.o(CL$$btod_d2e_norm_op1) refers (Special) to usenofp.o(x$fpl$usenofp) for __I$use$fp
    btod.o(CL$$btod_d2e_norm_op1) refers to btod.o(CL$$btod_d2e_denorm_low) for _d2e_denorm_low
    btod.o(CL$$btod_d2e_denorm_low) refers (Special) to usenofp.o(x$fpl$usenofp) for __I$use$fp
    btod.o(CL$$btod_emul) refers (Special) to usenofp.o(x$fpl$usenofp) for __I$use$fp
    btod.o(CL$$btod_emul) refers to btod.o(CL$$btod_mult_common) for __btod_mult_common
    btod.o(CL$$btod_emul) refers to btod.o(CL$$btod_e2e) for _e2e
    btod.o(CL$$btod_ediv) refers (Special) to usenofp.o(x$fpl$usenofp) for __I$use$fp
    btod.o(CL$$btod_ediv) refers to btod.o(CL$$btod_div_common) for __btod_div_common
    btod.o(CL$$btod_ediv) refers to btod.o(CL$$btod_e2e) for _e2e
    btod.o(CL$$btod_emuld) refers (Special) to usenofp.o(x$fpl$usenofp) for __I$use$fp
    btod.o(CL$$btod_emuld) refers to btod.o(CL$$btod_mult_common) for __btod_mult_common
    btod.o(CL$$btod_emuld) refers to btod.o(CL$$btod_e2d) for _e2d
    btod.o(CL$$btod_edivd) refers (Special) to usenofp.o(x$fpl$usenofp) for __I$use$fp
    btod.o(CL$$btod_edivd) refers to btod.o(CL$$btod_div_common) for __btod_div_common
    btod.o(CL$$btod_edivd) refers to btod.o(CL$$btod_e2d) for _e2d
    btod.o(CL$$btod_e2e) refers (Special) to usenofp.o(x$fpl$usenofp) for __I$use$fp
    btod.o(CL$$btod_e2d) refers (Special) to usenofp.o(x$fpl$usenofp) for __I$use$fp
    btod.o(CL$$btod_e2d) refers to btod.o(CL$$btod_e2e) for _e2e
    btod.o(CL$$btod_mult_common) refers (Special) to usenofp.o(x$fpl$usenofp) for __I$use$fp
    btod.o(CL$$btod_div_common) refers (Special) to usenofp.o(x$fpl$usenofp) for __I$use$fp
    lc_numeric_c.o(locale$$data) refers (Special) to libinit2.o(.ARM.Collect$$libinit$$00000016) for __rt_lib_init_lc_numeric_2
    lc_numeric_c.o(locale$$code) refers (Special) to libinit2.o(.ARM.Collect$$libinit$$00000016) for __rt_lib_init_lc_numeric_2
    lc_numeric_c.o(locale$$code) refers to strcmpv7m.o(.text) for strcmp
    lc_numeric_c.o(locale$$code) refers to lc_numeric_c.o(locale$$data) for __lcnum_c_name
    istatus.o(x$fpl$ieeestatus) refers (Special) to usenofp.o(x$fpl$usenofp) for __I$use$fp
    fpclassify.o(i.__ARM_fpclassify) refers (Special) to usenofp.o(x$fpl$usenofp) for __I$use$fp
    poly.o(i.__kernel_poly) refers (Special) to usenofp.o(x$fpl$usenofp) for __I$use$fp
    poly.o(i.__kernel_poly) refers to dmul.o(x$fpl$dmul) for __aeabi_dmul
    poly.o(i.__kernel_poly) refers to daddsub_clz.o(x$fpl$dadd) for __aeabi_dadd
    libspace.o(.text) refers to libspace.o(.bss) for __libspace_start
    sys_stackheap_outer.o(.text) refers to libspace.o(.text) for __user_perproc_libspace
    sys_stackheap_outer.o(.text) refers to startup_stm32f427xx.o(.text) for __user_initial_stackheap
    exit.o(.text) refers to rtexit.o(.ARM.Collect$$rtexit$$00000000) for __rt_exit
    libinit.o(.ARM.Collect$$libinit$$00000000) refers (Special) to libinit2.o(.ARM.Collect$$libinit$$0000002E) for __rt_lib_init_alloca_1
    libinit.o(.ARM.Collect$$libinit$$00000000) refers (Special) to libinit2.o(.ARM.Collect$$libinit$$0000002C) for __rt_lib_init_argv_1
    libinit.o(.ARM.Collect$$libinit$$00000000) refers (Special) to libinit2.o(.ARM.Collect$$libinit$$0000001B) for __rt_lib_init_atexit_1
    libinit.o(.ARM.Collect$$libinit$$00000000) refers (Special) to libinit2.o(.ARM.Collect$$libinit$$00000021) for __rt_lib_init_clock_1
    libinit.o(.ARM.Collect$$libinit$$00000000) refers (Special) to libinit2.o(.ARM.Collect$$libinit$$00000032) for __rt_lib_init_cpp_1
    libinit.o(.ARM.Collect$$libinit$$00000000) refers (Special) to libinit2.o(.ARM.Collect$$libinit$$00000030) for __rt_lib_init_exceptions_1
    libinit.o(.ARM.Collect$$libinit$$00000000) refers (Special) to libinit2.o(.ARM.Collect$$libinit$$00000001) for __rt_lib_init_fp_1
    libinit.o(.ARM.Collect$$libinit$$00000000) refers (Special) to libinit2.o(.ARM.Collect$$libinit$$0000001F) for __rt_lib_init_fp_trap_1
    libinit.o(.ARM.Collect$$libinit$$00000000) refers (Special) to libinit2.o(.ARM.Collect$$libinit$$00000023) for __rt_lib_init_getenv_1
    libinit.o(.ARM.Collect$$libinit$$00000000) refers (Special) to libinit2.o(.ARM.Collect$$libinit$$0000000A) for __rt_lib_init_heap_1
    libinit.o(.ARM.Collect$$libinit$$00000000) refers (Special) to libinit2.o(.ARM.Collect$$libinit$$00000011) for __rt_lib_init_lc_collate_1
    libinit.o(.ARM.Collect$$libinit$$00000000) refers (Special) to libinit2.o(.ARM.Collect$$libinit$$00000013) for __rt_lib_init_lc_ctype_1
    libinit.o(.ARM.Collect$$libinit$$00000000) refers (Special) to libinit2.o(.ARM.Collect$$libinit$$00000015) for __rt_lib_init_lc_monetary_1
    libinit.o(.ARM.Collect$$libinit$$00000000) refers (Special) to libinit2.o(.ARM.Collect$$libinit$$00000017) for __rt_lib_init_lc_numeric_1
    libinit.o(.ARM.Collect$$libinit$$00000000) refers (Special) to libinit2.o(.ARM.Collect$$libinit$$00000019) for __rt_lib_init_lc_time_1
    libinit.o(.ARM.Collect$$libinit$$00000000) refers (Special) to libinit2.o(.ARM.Collect$$libinit$$00000004) for __rt_lib_init_preinit_1
    libinit.o(.ARM.Collect$$libinit$$00000000) refers (Special) to libinit2.o(.ARM.Collect$$libinit$$0000000E) for __rt_lib_init_rand_1
    libinit.o(.ARM.Collect$$libinit$$00000000) refers (Special) to libinit2.o(.ARM.Collect$$libinit$$00000033) for __rt_lib_init_return
    libinit.o(.ARM.Collect$$libinit$$00000000) refers (Special) to libinit2.o(.ARM.Collect$$libinit$$0000001D) for __rt_lib_init_signal_1
    libinit.o(.ARM.Collect$$libinit$$00000000) refers (Special) to libinit2.o(.ARM.Collect$$libinit$$00000025) for __rt_lib_init_stdio_1
    libinit.o(.ARM.Collect$$libinit$$00000000) refers (Special) to libinit2.o(.ARM.Collect$$libinit$$0000000C) for __rt_lib_init_user_alloc_1
    libinit2.o(.ARM.Collect$$libinit$$00000001) refers to fpinit.o(x$fpl$fpinit) for _fp_init
    libinit2.o(.ARM.Collect$$libinit$$0000000F) refers (Weak) to rt_locale_intlibspace.o(.text) for __rt_locale
    libinit2.o(.ARM.Collect$$libinit$$00000010) refers to libinit2.o(.ARM.Collect$$libinit$$0000000F) for .ARM.Collect$$libinit$$0000000F
    libinit2.o(.ARM.Collect$$libinit$$00000012) refers to libinit2.o(.ARM.Collect$$libinit$$0000000F) for .ARM.Collect$$libinit$$0000000F
    libinit2.o(.ARM.Collect$$libinit$$00000014) refers to libinit2.o(.ARM.Collect$$libinit$$0000000F) for .ARM.Collect$$libinit$$0000000F
    libinit2.o(.ARM.Collect$$libinit$$00000016) refers to libinit2.o(.ARM.Collect$$libinit$$0000000F) for .ARM.Collect$$libinit$$0000000F
    libinit2.o(.ARM.Collect$$libinit$$00000016) refers (Weak) to lc_numeric_c.o(locale$$code) for _get_lc_numeric
    libinit2.o(.ARM.Collect$$libinit$$00000018) refers to libinit2.o(.ARM.Collect$$libinit$$0000000F) for .ARM.Collect$$libinit$$0000000F
    libinit2.o(.ARM.Collect$$libinit$$00000026) refers to argv_veneer.o(.emb_text) for __ARM_argv_veneer
    libinit2.o(.ARM.Collect$$libinit$$00000027) refers to argv_veneer.o(.emb_text) for __ARM_argv_veneer
    rtexit.o(.ARM.Collect$$rtexit$$00000000) refers (Special) to rtexit2.o(.ARM.Collect$$rtexit$$00000004) for __rt_exit_exit
    rtexit.o(.ARM.Collect$$rtexit$$00000000) refers (Special) to rtexit2.o(.ARM.Collect$$rtexit$$00000003) for __rt_exit_ls
    rtexit.o(.ARM.Collect$$rtexit$$00000000) refers (Special) to rtexit2.o(.ARM.Collect$$rtexit$$00000002) for __rt_exit_prels_1
    rtexit.o(.ARM.exidx) refers (Special) to rtexit2.o(.ARM.Collect$$rtexit$$00000004) for __rt_exit_exit
    rtexit.o(.ARM.exidx) refers (Special) to rtexit2.o(.ARM.Collect$$rtexit$$00000003) for __rt_exit_ls
    rtexit.o(.ARM.exidx) refers (Special) to rtexit2.o(.ARM.Collect$$rtexit$$00000002) for __rt_exit_prels_1
    rtexit.o(.ARM.exidx) refers to rtexit.o(.ARM.Collect$$rtexit$$00000000) for .ARM.Collect$$rtexit$$00000000
    argv_veneer.o(.emb_text) refers to no_argv.o(.text) for __ARM_get_argv
    rtexit2.o(.ARM.Collect$$rtexit$$00000003) refers to libshutdown.o(.ARM.Collect$$libshutdown$$00000000) for __rt_lib_shutdown
    rtexit2.o(.ARM.Collect$$rtexit$$00000004) refers to usart.o(i._sys_exit) for _sys_exit
    rtexit2.o(.ARM.exidx) refers to rtexit2.o(.ARM.Collect$$rtexit$$00000001) for .ARM.Collect$$rtexit$$00000001
    rtexit2.o(.ARM.exidx) refers to rtexit2.o(.ARM.Collect$$rtexit$$00000003) for .ARM.Collect$$rtexit$$00000003
    rtexit2.o(.ARM.exidx) refers to rtexit2.o(.ARM.Collect$$rtexit$$00000004) for .ARM.Collect$$rtexit$$00000004
    _get_argv_nomalloc.o(.text) refers (Special) to hrguard.o(.text) for __heap_region$guard
    _get_argv_nomalloc.o(.text) refers to defsig_rtmem_outer.o(.text) for __rt_SIGRTMEM
    _get_argv_nomalloc.o(.text) refers to sys_command.o(.text) for _sys_command_string
    sys_command.o(.text) refers (Special) to use_no_semi.o(.text) for __I$use$semihosting
    sys_command.o(.text) refers (Special) to indicate_semi.o(.text) for __semihosting_library_function
    defsig_rtmem_outer.o(.text) refers to defsig_rtmem_inner.o(.text) for __rt_SIGRTMEM_inner
    defsig_rtmem_outer.o(.text) refers to defsig_exit.o(.text) for __sig_exit
    defsig_rtmem_formal.o(.text) refers to rt_raise.o(.text) for __rt_raise
    libshutdown.o(.ARM.Collect$$libshutdown$$00000000) refers (Special) to libshutdown2.o(.ARM.Collect$$libshutdown$$00000004) for __rt_lib_shutdown_cpp_1
    libshutdown.o(.ARM.Collect$$libshutdown$$00000000) refers (Special) to libshutdown2.o(.ARM.Collect$$libshutdown$$00000002) for __rt_lib_shutdown_fini_1
    libshutdown.o(.ARM.Collect$$libshutdown$$00000000) refers (Special) to libshutdown2.o(.ARM.Collect$$libshutdown$$00000009) for __rt_lib_shutdown_fp_trap_1
    libshutdown.o(.ARM.Collect$$libshutdown$$00000000) refers (Special) to libshutdown2.o(.ARM.Collect$$libshutdown$$00000011) for __rt_lib_shutdown_heap_1
    libshutdown.o(.ARM.Collect$$libshutdown$$00000000) refers (Special) to libshutdown2.o(.ARM.Collect$$libshutdown$$00000012) for __rt_lib_shutdown_return
    libshutdown.o(.ARM.Collect$$libshutdown$$00000000) refers (Special) to libshutdown2.o(.ARM.Collect$$libshutdown$$0000000C) for __rt_lib_shutdown_signal_1
    libshutdown.o(.ARM.Collect$$libshutdown$$00000000) refers (Special) to libshutdown2.o(.ARM.Collect$$libshutdown$$00000006) for __rt_lib_shutdown_stdio_1
    libshutdown.o(.ARM.Collect$$libshutdown$$00000000) refers (Special) to libshutdown2.o(.ARM.Collect$$libshutdown$$0000000E) for __rt_lib_shutdown_user_alloc_1
    rt_raise.o(.text) refers to __raise.o(.text) for __raise
    rt_raise.o(.text) refers to usart.o(i._sys_exit) for _sys_exit
    defsig_exit.o(.text) refers to usart.o(i._sys_exit) for _sys_exit
    defsig_rtmem_inner.o(.text) refers to defsig_general.o(.text) for __default_signal_display
    __raise.o(.text) refers to defsig.o(CL$$defsig) for __default_signal_handler
    defsig_general.o(.text) refers to sys_wrch.o(.text) for _ttywrch
    sys_wrch.o(.text) refers (Special) to use_no_semi.o(.text) for __I$use$semihosting
    sys_wrch.o(.text) refers (Special) to indicate_semi.o(.text) for __semihosting_library_function
    defsig.o(CL$$defsig) refers to defsig_rtmem_inner.o(.text) for __rt_SIGRTMEM_inner
    defsig_abrt_inner.o(.text) refers to defsig_general.o(.text) for __default_signal_display
    defsig_fpe_inner.o(.text) refers to defsig_general.o(.text) for __default_signal_display
    defsig_rtred_inner.o(.text) refers to defsig_general.o(.text) for __default_signal_display
    defsig_stak_inner.o(.text) refers to defsig_general.o(.text) for __default_signal_display
    defsig_pvfn_inner.o(.text) refers to defsig_general.o(.text) for __default_signal_display
    defsig_cppl_inner.o(.text) refers to defsig_general.o(.text) for __default_signal_display
    defsig_segv_inner.o(.text) refers to defsig_general.o(.text) for __default_signal_display
    defsig_other.o(.text) refers to defsig_general.o(.text) for __default_signal_display


==============================================================================

Removing Unused input sections from the image.

    Removing system_stm32f4xx.o(.rev16_text), (4 bytes).
    Removing system_stm32f4xx.o(.revsh_text), (4 bytes).
    Removing system_stm32f4xx.o(i.SystemCoreClockUpdate), (192 bytes).
    Removing misc.o(.rev16_text), (4 bytes).
    Removing misc.o(.revsh_text), (4 bytes).
    Removing misc.o(i.NVIC_SetVectorTable), (20 bytes).
    Removing misc.o(i.NVIC_SystemLPConfig), (32 bytes).
    Removing misc.o(i.SysTick_CLKSourceConfig), (40 bytes).
    Removing stm32f4xx_adc.o(.rev16_text), (4 bytes).
    Removing stm32f4xx_adc.o(.revsh_text), (4 bytes).
    Removing stm32f4xx_adc.o(i.ADC_AnalogWatchdogCmd), (20 bytes).
    Removing stm32f4xx_adc.o(i.ADC_AnalogWatchdogSingleChannelConfig), (16 bytes).
    Removing stm32f4xx_adc.o(i.ADC_AnalogWatchdogThresholdsConfig), (6 bytes).
    Removing stm32f4xx_adc.o(i.ADC_AutoInjectedConvCmd), (22 bytes).
    Removing stm32f4xx_adc.o(i.ADC_ClearFlag), (6 bytes).
    Removing stm32f4xx_adc.o(i.ADC_ClearITPendingBit), (10 bytes).
    Removing stm32f4xx_adc.o(i.ADC_Cmd), (22 bytes).
    Removing stm32f4xx_adc.o(i.ADC_CommonInit), (48 bytes).
    Removing stm32f4xx_adc.o(i.ADC_CommonStructInit), (12 bytes).
    Removing stm32f4xx_adc.o(i.ADC_ContinuousModeCmd), (22 bytes).
    Removing stm32f4xx_adc.o(i.ADC_DMACmd), (22 bytes).
    Removing stm32f4xx_adc.o(i.ADC_DMARequestAfterLastTransferCmd), (22 bytes).
    Removing stm32f4xx_adc.o(i.ADC_DeInit), (22 bytes).
    Removing stm32f4xx_adc.o(i.ADC_DiscModeChannelCountConfig), (24 bytes).
    Removing stm32f4xx_adc.o(i.ADC_DiscModeCmd), (22 bytes).
    Removing stm32f4xx_adc.o(i.ADC_EOCOnEachRegularChannelCmd), (22 bytes).
    Removing stm32f4xx_adc.o(i.ADC_ExternalTrigInjectedConvConfig), (16 bytes).
    Removing stm32f4xx_adc.o(i.ADC_ExternalTrigInjectedConvEdgeConfig), (16 bytes).
    Removing stm32f4xx_adc.o(i.ADC_GetConversionValue), (8 bytes).
    Removing stm32f4xx_adc.o(i.ADC_GetFlagStatus), (18 bytes).
    Removing stm32f4xx_adc.o(i.ADC_GetITStatus), (38 bytes).
    Removing stm32f4xx_adc.o(i.ADC_GetInjectedConversionValue), (28 bytes).
    Removing stm32f4xx_adc.o(i.ADC_GetMultiModeConversionValue), (12 bytes).
    Removing stm32f4xx_adc.o(i.ADC_GetSoftwareStartConvStatus), (20 bytes).
    Removing stm32f4xx_adc.o(i.ADC_GetSoftwareStartInjectedConvCmdStatus), (20 bytes).
    Removing stm32f4xx_adc.o(i.ADC_ITConfig), (32 bytes).
    Removing stm32f4xx_adc.o(i.ADC_Init), (84 bytes).
    Removing stm32f4xx_adc.o(i.ADC_InjectedChannelConfig), (130 bytes).
    Removing stm32f4xx_adc.o(i.ADC_InjectedDiscModeCmd), (22 bytes).
    Removing stm32f4xx_adc.o(i.ADC_InjectedSequencerLengthConfig), (24 bytes).
    Removing stm32f4xx_adc.o(i.ADC_MultiModeDMARequestAfterLastTransferCmd), (44 bytes).
    Removing stm32f4xx_adc.o(i.ADC_RegularChannelConfig), (184 bytes).
    Removing stm32f4xx_adc.o(i.ADC_SetInjectedOffset), (20 bytes).
    Removing stm32f4xx_adc.o(i.ADC_SoftwareStartConv), (10 bytes).
    Removing stm32f4xx_adc.o(i.ADC_SoftwareStartInjectedConv), (10 bytes).
    Removing stm32f4xx_adc.o(i.ADC_StructInit), (20 bytes).
    Removing stm32f4xx_adc.o(i.ADC_TempSensorVrefintCmd), (44 bytes).
    Removing stm32f4xx_adc.o(i.ADC_VBATCmd), (44 bytes).
    Removing stm32f4xx_can.o(.rev16_text), (4 bytes).
    Removing stm32f4xx_can.o(.revsh_text), (4 bytes).
    Removing stm32f4xx_can.o(i.CAN_CancelTransmit), (48 bytes).
    Removing stm32f4xx_can.o(i.CAN_DBGFreeze), (22 bytes).
    Removing stm32f4xx_can.o(i.CAN_FIFORelease), (22 bytes).
    Removing stm32f4xx_can.o(i.CAN_GetFlagStatus), (120 bytes).
    Removing stm32f4xx_can.o(i.CAN_GetLSBTransmitErrorCounter), (12 bytes).
    Removing stm32f4xx_can.o(i.CAN_GetLastErrorCode), (12 bytes).
    Removing stm32f4xx_can.o(i.CAN_GetReceiveErrorCounter), (10 bytes).
    Removing stm32f4xx_can.o(i.CAN_MessagePending), (30 bytes).
    Removing stm32f4xx_can.o(i.CAN_OperatingModeRequest), (162 bytes).
    Removing stm32f4xx_can.o(i.CAN_SlaveStartBank), (52 bytes).
    Removing stm32f4xx_can.o(i.CAN_Sleep), (30 bytes).
    Removing stm32f4xx_can.o(i.CAN_TTComModeCmd), (118 bytes).
    Removing stm32f4xx_can.o(i.CAN_WakeUp), (48 bytes).
    Removing stm32f4xx_dbgmcu.o(.rev16_text), (4 bytes).
    Removing stm32f4xx_dbgmcu.o(.revsh_text), (4 bytes).
    Removing stm32f4xx_dbgmcu.o(i.DBGMCU_APB1PeriphConfig), (32 bytes).
    Removing stm32f4xx_dbgmcu.o(i.DBGMCU_APB2PeriphConfig), (32 bytes).
    Removing stm32f4xx_dbgmcu.o(i.DBGMCU_Config), (32 bytes).
    Removing stm32f4xx_dbgmcu.o(i.DBGMCU_GetDEVID), (16 bytes).
    Removing stm32f4xx_dbgmcu.o(i.DBGMCU_GetREVID), (12 bytes).
    Removing stm32f4xx_dma.o(.rev16_text), (4 bytes).
    Removing stm32f4xx_dma.o(.revsh_text), (4 bytes).
    Removing stm32f4xx_dma.o(i.DMA_DoubleBufferModeCmd), (22 bytes).
    Removing stm32f4xx_dma.o(i.DMA_DoubleBufferModeConfig), (24 bytes).
    Removing stm32f4xx_dma.o(i.DMA_FlowControllerConfig), (22 bytes).
    Removing stm32f4xx_dma.o(i.DMA_GetCmdStatus), (20 bytes).
    Removing stm32f4xx_dma.o(i.DMA_GetCurrentMemoryTarget), (20 bytes).
    Removing stm32f4xx_dma.o(i.DMA_GetFIFOStatus), (12 bytes).
    Removing stm32f4xx_dma.o(i.DMA_GetITStatus), (100 bytes).
    Removing stm32f4xx_dma.o(i.DMA_MemoryTargetConfig), (10 bytes).
    Removing stm32f4xx_dma.o(i.DMA_PeriphIncOffsetSizeConfig), (22 bytes).
    Removing stm32f4xx_dma.o(i.DMA_StructInit), (34 bytes).
    Removing stm32f4xx_exti.o(.rev16_text), (4 bytes).
    Removing stm32f4xx_exti.o(.revsh_text), (4 bytes).
    Removing stm32f4xx_exti.o(i.EXTI_ClearFlag), (12 bytes).
    Removing stm32f4xx_exti.o(i.EXTI_ClearITPendingBit), (12 bytes).
    Removing stm32f4xx_exti.o(i.EXTI_DeInit), (36 bytes).
    Removing stm32f4xx_exti.o(i.EXTI_GenerateSWInterrupt), (16 bytes).
    Removing stm32f4xx_exti.o(i.EXTI_GetFlagStatus), (24 bytes).
    Removing stm32f4xx_exti.o(i.EXTI_GetITStatus), (24 bytes).
    Removing stm32f4xx_exti.o(i.EXTI_Init), (148 bytes).
    Removing stm32f4xx_exti.o(i.EXTI_StructInit), (16 bytes).
    Removing stm32f4xx_flash.o(.rev16_text), (4 bytes).
    Removing stm32f4xx_flash.o(.revsh_text), (4 bytes).
    Removing stm32f4xx_flash.o(i.FLASH_ClearFlag), (12 bytes).
    Removing stm32f4xx_flash.o(i.FLASH_DataCacheCmd), (36 bytes).
    Removing stm32f4xx_flash.o(i.FLASH_DataCacheReset), (20 bytes).
    Removing stm32f4xx_flash.o(i.FLASH_EraseAllBank1Sectors), (108 bytes).
    Removing stm32f4xx_flash.o(i.FLASH_EraseAllBank2Sectors), (108 bytes).
    Removing stm32f4xx_flash.o(i.FLASH_EraseAllSectors), (112 bytes).
    Removing stm32f4xx_flash.o(i.FLASH_EraseSector), (136 bytes).
    Removing stm32f4xx_flash.o(i.FLASH_GetFlagStatus), (24 bytes).
    Removing stm32f4xx_flash.o(i.FLASH_GetStatus), (84 bytes).
    Removing stm32f4xx_flash.o(i.FLASH_ITConfig), (32 bytes).
    Removing stm32f4xx_flash.o(i.FLASH_InstructionCacheCmd), (36 bytes).
    Removing stm32f4xx_flash.o(i.FLASH_InstructionCacheReset), (20 bytes).
    Removing stm32f4xx_flash.o(i.FLASH_Lock), (20 bytes).
    Removing stm32f4xx_flash.o(i.FLASH_OB_BORConfig), (28 bytes).
    Removing stm32f4xx_flash.o(i.FLASH_OB_BootConfig), (28 bytes).
    Removing stm32f4xx_flash.o(i.FLASH_OB_GetBOR), (16 bytes).
    Removing stm32f4xx_flash.o(i.FLASH_OB_GetPCROP), (12 bytes).
    Removing stm32f4xx_flash.o(i.FLASH_OB_GetPCROP1), (12 bytes).
    Removing stm32f4xx_flash.o(i.FLASH_OB_GetRDP), (24 bytes).
    Removing stm32f4xx_flash.o(i.FLASH_OB_GetUser), (16 bytes).
    Removing stm32f4xx_flash.o(i.FLASH_OB_GetWRP), (12 bytes).
    Removing stm32f4xx_flash.o(i.FLASH_OB_GetWRP1), (12 bytes).
    Removing stm32f4xx_flash.o(i.FLASH_OB_Launch), (32 bytes).
    Removing stm32f4xx_flash.o(i.FLASH_OB_Lock), (20 bytes).
    Removing stm32f4xx_flash.o(i.FLASH_OB_PCROP1Config), (52 bytes).
    Removing stm32f4xx_flash.o(i.FLASH_OB_PCROPConfig), (52 bytes).
    Removing stm32f4xx_flash.o(i.FLASH_OB_PCROPSelectionConfig), (24 bytes).
    Removing stm32f4xx_flash.o(i.FLASH_OB_RDPConfig), (28 bytes).
    Removing stm32f4xx_flash.o(i.FLASH_OB_Unlock), (36 bytes).
    Removing stm32f4xx_flash.o(i.FLASH_OB_UserConfig), (48 bytes).
    Removing stm32f4xx_flash.o(i.FLASH_OB_WRP1Config), (52 bytes).
    Removing stm32f4xx_flash.o(i.FLASH_OB_WRPConfig), (52 bytes).
    Removing stm32f4xx_flash.o(i.FLASH_PrefetchBufferCmd), (36 bytes).
    Removing stm32f4xx_flash.o(i.FLASH_ProgramByte), (76 bytes).
    Removing stm32f4xx_flash.o(i.FLASH_ProgramDoubleWord), (84 bytes).
    Removing stm32f4xx_flash.o(i.FLASH_ProgramHalfWord), (80 bytes).
    Removing stm32f4xx_flash.o(i.FLASH_ProgramWord), (80 bytes).
    Removing stm32f4xx_flash.o(i.FLASH_SetLatency), (12 bytes).
    Removing stm32f4xx_flash.o(i.FLASH_Unlock), (36 bytes).
    Removing stm32f4xx_flash.o(i.FLASH_WaitForLastOperation), (34 bytes).
    Removing stm32f4xx_gpio.o(.rev16_text), (4 bytes).
    Removing stm32f4xx_gpio.o(.revsh_text), (4 bytes).
    Removing stm32f4xx_gpio.o(i.GPIO_DeInit), (312 bytes).
    Removing stm32f4xx_gpio.o(i.GPIO_PinLockConfig), (34 bytes).
    Removing stm32f4xx_gpio.o(i.GPIO_ReadInputData), (8 bytes).
    Removing stm32f4xx_gpio.o(i.GPIO_ReadInputDataBit), (18 bytes).
    Removing stm32f4xx_gpio.o(i.GPIO_ReadOutputData), (8 bytes).
    Removing stm32f4xx_gpio.o(i.GPIO_ReadOutputDataBit), (18 bytes).
    Removing stm32f4xx_gpio.o(i.GPIO_StructInit), (18 bytes).
    Removing stm32f4xx_gpio.o(i.GPIO_ToggleBits), (8 bytes).
    Removing stm32f4xx_gpio.o(i.GPIO_Write), (4 bytes).
    Removing stm32f4xx_gpio.o(i.GPIO_WriteBit), (10 bytes).
    Removing stm32f4xx_i2c.o(.rev16_text), (4 bytes).
    Removing stm32f4xx_i2c.o(.revsh_text), (4 bytes).
    Removing stm32f4xx_i2c.o(i.I2C_ARPCmd), (24 bytes).
    Removing stm32f4xx_i2c.o(i.I2C_AcknowledgeConfig), (24 bytes).
    Removing stm32f4xx_i2c.o(i.I2C_AnalogFilterCmd), (24 bytes).
    Removing stm32f4xx_i2c.o(i.I2C_CalculatePEC), (24 bytes).
    Removing stm32f4xx_i2c.o(i.I2C_CheckEvent), (42 bytes).
    Removing stm32f4xx_i2c.o(i.I2C_ClearFlag), (12 bytes).
    Removing stm32f4xx_i2c.o(i.I2C_ClearITPendingBit), (12 bytes).
    Removing stm32f4xx_i2c.o(i.I2C_Cmd), (24 bytes).
    Removing stm32f4xx_i2c.o(i.I2C_DMACmd), (24 bytes).
    Removing stm32f4xx_i2c.o(i.I2C_DMALastTransferCmd), (24 bytes).
    Removing stm32f4xx_i2c.o(i.I2C_DeInit), (96 bytes).
    Removing stm32f4xx_i2c.o(i.I2C_DigitalFilterConfig), (22 bytes).
    Removing stm32f4xx_i2c.o(i.I2C_DualAddressCmd), (24 bytes).
    Removing stm32f4xx_i2c.o(i.I2C_FastModeDutyCycleConfig), (28 bytes).
    Removing stm32f4xx_i2c.o(i.I2C_GeneralCallCmd), (24 bytes).
    Removing stm32f4xx_i2c.o(i.I2C_GenerateSTART), (24 bytes).
    Removing stm32f4xx_i2c.o(i.I2C_GenerateSTOP), (24 bytes).
    Removing stm32f4xx_i2c.o(i.I2C_GetFlagStatus), (58 bytes).
    Removing stm32f4xx_i2c.o(i.I2C_GetITStatus), (38 bytes).
    Removing stm32f4xx_i2c.o(i.I2C_GetLastEvent), (26 bytes).
    Removing stm32f4xx_i2c.o(i.I2C_GetPEC), (8 bytes).
    Removing stm32f4xx_i2c.o(i.I2C_ITConfig), (18 bytes).
    Removing stm32f4xx_i2c.o(i.I2C_Init), (232 bytes).
    Removing stm32f4xx_i2c.o(i.I2C_NACKPositionConfig), (28 bytes).
    Removing stm32f4xx_i2c.o(i.I2C_OwnAddress2Config), (22 bytes).
    Removing stm32f4xx_i2c.o(i.I2C_PECPositionConfig), (28 bytes).
    Removing stm32f4xx_i2c.o(i.I2C_ReadRegister), (22 bytes).
    Removing stm32f4xx_i2c.o(i.I2C_ReceiveData), (8 bytes).
    Removing stm32f4xx_i2c.o(i.I2C_SMBusAlertConfig), (28 bytes).
    Removing stm32f4xx_i2c.o(i.I2C_Send7bitAddress), (16 bytes).
    Removing stm32f4xx_i2c.o(i.I2C_SendData), (4 bytes).
    Removing stm32f4xx_i2c.o(i.I2C_SoftwareResetCmd), (22 bytes).
    Removing stm32f4xx_i2c.o(i.I2C_StretchClockCmd), (24 bytes).
    Removing stm32f4xx_i2c.o(i.I2C_StructInit), (30 bytes).
    Removing stm32f4xx_i2c.o(i.I2C_TransmitPEC), (24 bytes).
    Removing stm32f4xx_pwr.o(.rev16_text), (4 bytes).
    Removing stm32f4xx_pwr.o(.revsh_text), (4 bytes).
    Removing stm32f4xx_pwr.o(i.PWR_BackupAccessCmd), (12 bytes).
    Removing stm32f4xx_pwr.o(i.PWR_BackupRegulatorCmd), (12 bytes).
    Removing stm32f4xx_pwr.o(i.PWR_ClearFlag), (40 bytes).
    Removing stm32f4xx_pwr.o(i.PWR_DeInit), (22 bytes).
    Removing stm32f4xx_pwr.o(i.PWR_EnterSTANDBYMode), (40 bytes).
    Removing stm32f4xx_pwr.o(i.PWR_EnterSTOPMode), (68 bytes).
    Removing stm32f4xx_pwr.o(i.PWR_EnterUnderDriveSTOPMode), (68 bytes).
    Removing stm32f4xx_pwr.o(i.PWR_FlashPowerDownCmd), (12 bytes).
    Removing stm32f4xx_pwr.o(i.PWR_GetFlagStatus), (24 bytes).
    Removing stm32f4xx_pwr.o(i.PWR_LowRegulatorLowVoltageCmd), (24 bytes).
    Removing stm32f4xx_pwr.o(i.PWR_MainRegulatorLowVoltageCmd), (24 bytes).
    Removing stm32f4xx_pwr.o(i.PWR_MainRegulatorModeConfig), (24 bytes).
    Removing stm32f4xx_pwr.o(i.PWR_OverDriveCmd), (12 bytes).
    Removing stm32f4xx_pwr.o(i.PWR_OverDriveSWCmd), (12 bytes).
    Removing stm32f4xx_pwr.o(i.PWR_PVDCmd), (12 bytes).
    Removing stm32f4xx_pwr.o(i.PWR_PVDLevelConfig), (24 bytes).
    Removing stm32f4xx_pwr.o(i.PWR_UnderDriveCmd), (36 bytes).
    Removing stm32f4xx_pwr.o(i.PWR_WakeUpPinCmd), (12 bytes).
    Removing stm32f4xx_rcc.o(.rev16_text), (4 bytes).
    Removing stm32f4xx_rcc.o(.revsh_text), (4 bytes).
    Removing stm32f4xx_rcc.o(i.RCC_AHB1PeriphClockLPModeCmd), (32 bytes).
    Removing stm32f4xx_rcc.o(i.RCC_AHB1PeriphResetCmd), (32 bytes).
    Removing stm32f4xx_rcc.o(i.RCC_AHB2PeriphClockCmd), (32 bytes).
    Removing stm32f4xx_rcc.o(i.RCC_AHB2PeriphClockLPModeCmd), (32 bytes).
    Removing stm32f4xx_rcc.o(i.RCC_AHB2PeriphResetCmd), (32 bytes).
    Removing stm32f4xx_rcc.o(i.RCC_AHB3PeriphClockCmd), (32 bytes).
    Removing stm32f4xx_rcc.o(i.RCC_AHB3PeriphClockLPModeCmd), (32 bytes).
    Removing stm32f4xx_rcc.o(i.RCC_AHB3PeriphResetCmd), (32 bytes).
    Removing stm32f4xx_rcc.o(i.RCC_APB1PeriphClockLPModeCmd), (32 bytes).
    Removing stm32f4xx_rcc.o(i.RCC_APB2PeriphClockLPModeCmd), (32 bytes).
    Removing stm32f4xx_rcc.o(i.RCC_AdjustHSICalibrationValue), (24 bytes).
    Removing stm32f4xx_rcc.o(i.RCC_BackupResetCmd), (12 bytes).
    Removing stm32f4xx_rcc.o(i.RCC_ClearFlag), (20 bytes).
    Removing stm32f4xx_rcc.o(i.RCC_ClearITPendingBit), (12 bytes).
    Removing stm32f4xx_rcc.o(i.RCC_ClockSecuritySystemCmd), (12 bytes).
    Removing stm32f4xx_rcc.o(i.RCC_DeInit), (100 bytes).
    Removing stm32f4xx_rcc.o(i.RCC_GetFlagStatus), (64 bytes).
    Removing stm32f4xx_rcc.o(i.RCC_GetITStatus), (24 bytes).
    Removing stm32f4xx_rcc.o(i.RCC_GetSYSCLKSource), (16 bytes).
    Removing stm32f4xx_rcc.o(i.RCC_HCLKConfig), (24 bytes).
    Removing stm32f4xx_rcc.o(i.RCC_HSEConfig), (16 bytes).
    Removing stm32f4xx_rcc.o(i.RCC_HSICmd), (12 bytes).
    Removing stm32f4xx_rcc.o(i.RCC_I2SCLKConfig), (12 bytes).
    Removing stm32f4xx_rcc.o(i.RCC_ITConfig), (32 bytes).
    Removing stm32f4xx_rcc.o(i.RCC_LSEConfig), (44 bytes).
    Removing stm32f4xx_rcc.o(i.RCC_LSEModeConfig), (36 bytes).
    Removing stm32f4xx_rcc.o(i.RCC_LSICmd), (12 bytes).
    Removing stm32f4xx_rcc.o(i.RCC_LTDCCLKDivConfig), (24 bytes).
    Removing stm32f4xx_rcc.o(i.RCC_MCO1Config), (28 bytes).
    Removing stm32f4xx_rcc.o(i.RCC_MCO2Config), (28 bytes).
    Removing stm32f4xx_rcc.o(i.RCC_PCLK1Config), (24 bytes).
    Removing stm32f4xx_rcc.o(i.RCC_PCLK2Config), (24 bytes).
    Removing stm32f4xx_rcc.o(i.RCC_PLLCmd), (12 bytes).
    Removing stm32f4xx_rcc.o(i.RCC_PLLConfig), (36 bytes).
    Removing stm32f4xx_rcc.o(i.RCC_PLLI2SCmd), (12 bytes).
    Removing stm32f4xx_rcc.o(i.RCC_PLLI2SConfig), (24 bytes).
    Removing stm32f4xx_rcc.o(i.RCC_PLLSAICmd), (12 bytes).
    Removing stm32f4xx_rcc.o(i.RCC_PLLSAIConfig), (24 bytes).
    Removing stm32f4xx_rcc.o(i.RCC_RTCCLKCmd), (12 bytes).
    Removing stm32f4xx_rcc.o(i.RCC_RTCCLKConfig), (60 bytes).
    Removing stm32f4xx_rcc.o(i.RCC_SAIBlockACLKConfig), (24 bytes).
    Removing stm32f4xx_rcc.o(i.RCC_SAIBlockBCLKConfig), (24 bytes).
    Removing stm32f4xx_rcc.o(i.RCC_SAIPLLI2SClkDivConfig), (28 bytes).
    Removing stm32f4xx_rcc.o(i.RCC_SAIPLLSAIClkDivConfig), (28 bytes).
    Removing stm32f4xx_rcc.o(i.RCC_SYSCLKConfig), (24 bytes).
    Removing stm32f4xx_rcc.o(i.RCC_TIMCLKPresConfig), (12 bytes).
    Removing stm32f4xx_rcc.o(i.RCC_WaitForHSEStartUp), (56 bytes).
    Removing stm32f4xx_rng.o(.rev16_text), (4 bytes).
    Removing stm32f4xx_rng.o(.revsh_text), (4 bytes).
    Removing stm32f4xx_rng.o(i.RNG_ClearFlag), (16 bytes).
    Removing stm32f4xx_rng.o(i.RNG_ClearITPendingBit), (16 bytes).
    Removing stm32f4xx_rng.o(i.RNG_Cmd), (36 bytes).
    Removing stm32f4xx_rng.o(i.RNG_DeInit), (20 bytes).
    Removing stm32f4xx_rng.o(i.RNG_GetFlagStatus), (24 bytes).
    Removing stm32f4xx_rng.o(i.RNG_GetITStatus), (24 bytes).
    Removing stm32f4xx_rng.o(i.RNG_GetRandomNumber), (12 bytes).
    Removing stm32f4xx_rng.o(i.RNG_ITConfig), (36 bytes).
    Removing stm32f4xx_sdio.o(.rev16_text), (4 bytes).
    Removing stm32f4xx_sdio.o(.revsh_text), (4 bytes).
    Removing stm32f4xx_sdio.o(i.SDIO_CEATAITCmd), (16 bytes).
    Removing stm32f4xx_sdio.o(i.SDIO_ClearFlag), (12 bytes).
    Removing stm32f4xx_sdio.o(i.SDIO_ClearITPendingBit), (12 bytes).
    Removing stm32f4xx_sdio.o(i.SDIO_ClockCmd), (12 bytes).
    Removing stm32f4xx_sdio.o(i.SDIO_CmdStructInit), (14 bytes).
    Removing stm32f4xx_sdio.o(i.SDIO_CommandCompletionCmd), (12 bytes).
    Removing stm32f4xx_sdio.o(i.SDIO_DMACmd), (12 bytes).
    Removing stm32f4xx_sdio.o(i.SDIO_DataConfig), (52 bytes).
    Removing stm32f4xx_sdio.o(i.SDIO_DataStructInit), (20 bytes).
    Removing stm32f4xx_sdio.o(i.SDIO_DeInit), (22 bytes).
    Removing stm32f4xx_sdio.o(i.SDIO_GetCommandResponse), (12 bytes).
    Removing stm32f4xx_sdio.o(i.SDIO_GetDataCounter), (12 bytes).
    Removing stm32f4xx_sdio.o(i.SDIO_GetFIFOCount), (12 bytes).
    Removing stm32f4xx_sdio.o(i.SDIO_GetFlagStatus), (24 bytes).
    Removing stm32f4xx_sdio.o(i.SDIO_GetITStatus), (24 bytes).
    Removing stm32f4xx_sdio.o(i.SDIO_GetPowerState), (16 bytes).
    Removing stm32f4xx_sdio.o(i.SDIO_GetResponse), (24 bytes).
    Removing stm32f4xx_sdio.o(i.SDIO_ITConfig), (32 bytes).
    Removing stm32f4xx_sdio.o(i.SDIO_Init), (48 bytes).
    Removing stm32f4xx_sdio.o(i.SDIO_ReadData), (12 bytes).
    Removing stm32f4xx_sdio.o(i.SDIO_SendCEATACmd), (12 bytes).
    Removing stm32f4xx_sdio.o(i.SDIO_SendCommand), (44 bytes).
    Removing stm32f4xx_sdio.o(i.SDIO_SendSDIOSuspendCmd), (12 bytes).
    Removing stm32f4xx_sdio.o(i.SDIO_SetPowerState), (12 bytes).
    Removing stm32f4xx_sdio.o(i.SDIO_SetSDIOOperation), (12 bytes).
    Removing stm32f4xx_sdio.o(i.SDIO_SetSDIOReadWaitMode), (12 bytes).
    Removing stm32f4xx_sdio.o(i.SDIO_StartSDIOReadWait), (12 bytes).
    Removing stm32f4xx_sdio.o(i.SDIO_StopSDIOReadWait), (12 bytes).
    Removing stm32f4xx_sdio.o(i.SDIO_StructInit), (16 bytes).
    Removing stm32f4xx_sdio.o(i.SDIO_WriteData), (12 bytes).
    Removing stm32f4xx_spi.o(.rev16_text), (4 bytes).
    Removing stm32f4xx_spi.o(.revsh_text), (4 bytes).
    Removing stm32f4xx_spi.o(i.I2S_Cmd), (24 bytes).
    Removing stm32f4xx_spi.o(i.I2S_FullDuplexConfig), (80 bytes).
    Removing stm32f4xx_spi.o(i.I2S_Init), (408 bytes).
    Removing stm32f4xx_spi.o(i.I2S_StructInit), (20 bytes).
    Removing stm32f4xx_spi.o(i.SPI_BiDirectionalLineConfig), (28 bytes).
    Removing stm32f4xx_spi.o(i.SPI_CalculateCRC), (24 bytes).
    Removing stm32f4xx_spi.o(i.SPI_DataSizeConfig), (18 bytes).
    Removing stm32f4xx_spi.o(i.SPI_GetCRC), (16 bytes).
    Removing stm32f4xx_spi.o(i.SPI_GetCRCPolynomial), (6 bytes).
    Removing stm32f4xx_spi.o(i.SPI_I2S_ClearFlag), (6 bytes).
    Removing stm32f4xx_spi.o(i.SPI_I2S_ClearITPendingBit), (20 bytes).
    Removing stm32f4xx_spi.o(i.SPI_I2S_DMACmd), (18 bytes).
    Removing stm32f4xx_spi.o(i.SPI_I2S_DeInit), (176 bytes).
    Removing stm32f4xx_spi.o(i.SPI_I2S_GetITStatus), (52 bytes).
    Removing stm32f4xx_spi.o(i.SPI_I2S_ITConfig), (32 bytes).
    Removing stm32f4xx_spi.o(i.SPI_NSSInternalSoftwareConfig), (30 bytes).
    Removing stm32f4xx_spi.o(i.SPI_SSOutputCmd), (24 bytes).
    Removing stm32f4xx_spi.o(i.SPI_StructInit), (24 bytes).
    Removing stm32f4xx_spi.o(i.SPI_TIModeCmd), (24 bytes).
    Removing stm32f4xx_spi.o(i.SPI_TransmitCRC), (10 bytes).
    Removing stm32f4xx_syscfg.o(.rev16_text), (4 bytes).
    Removing stm32f4xx_syscfg.o(.revsh_text), (4 bytes).
    Removing stm32f4xx_syscfg.o(i.SYSCFG_CompensationCellCmd), (12 bytes).
    Removing stm32f4xx_syscfg.o(i.SYSCFG_DeInit), (22 bytes).
    Removing stm32f4xx_syscfg.o(i.SYSCFG_ETH_MediaInterfaceConfig), (12 bytes).
    Removing stm32f4xx_syscfg.o(i.SYSCFG_EXTILineConfig), (64 bytes).
    Removing stm32f4xx_syscfg.o(i.SYSCFG_GetCompensationCellStatus), (24 bytes).
    Removing stm32f4xx_syscfg.o(i.SYSCFG_MemoryRemapConfig), (12 bytes).
    Removing stm32f4xx_syscfg.o(i.SYSCFG_MemorySwappingBank), (12 bytes).
    Removing stm32f4xx_tim.o(.rev16_text), (4 bytes).
    Removing stm32f4xx_tim.o(.revsh_text), (4 bytes).
    Removing stm32f4xx_tim.o(i.TI1_Config), (58 bytes).
    Removing stm32f4xx_tim.o(i.TI2_Config), (80 bytes).
    Removing stm32f4xx_tim.o(i.TI3_Config), (72 bytes).
    Removing stm32f4xx_tim.o(i.TI4_Config), (80 bytes).
    Removing stm32f4xx_tim.o(i.TIM_BDTRConfig), (32 bytes).
    Removing stm32f4xx_tim.o(i.TIM_BDTRStructInit), (18 bytes).
    Removing stm32f4xx_tim.o(i.TIM_CCPreloadControl), (24 bytes).
    Removing stm32f4xx_tim.o(i.TIM_CCxCmd), (30 bytes).
    Removing stm32f4xx_tim.o(i.TIM_CCxNCmd), (30 bytes).
    Removing stm32f4xx_tim.o(i.TIM_ClearFlag), (6 bytes).
    Removing stm32f4xx_tim.o(i.TIM_ClearOC1Ref), (18 bytes).
    Removing stm32f4xx_tim.o(i.TIM_ClearOC2Ref), (24 bytes).
    Removing stm32f4xx_tim.o(i.TIM_ClearOC3Ref), (18 bytes).
    Removing stm32f4xx_tim.o(i.TIM_ClearOC4Ref), (24 bytes).
    Removing stm32f4xx_tim.o(i.TIM_CounterModeConfig), (18 bytes).
    Removing stm32f4xx_tim.o(i.TIM_DMACmd), (18 bytes).
    Removing stm32f4xx_tim.o(i.TIM_DMAConfig), (10 bytes).
    Removing stm32f4xx_tim.o(i.TIM_ETRClockMode1Config), (54 bytes).
    Removing stm32f4xx_tim.o(i.TIM_ETRClockMode2Config), (32 bytes).
    Removing stm32f4xx_tim.o(i.TIM_ETRConfig), (28 bytes).
    Removing stm32f4xx_tim.o(i.TIM_EncoderInterfaceConfig), (66 bytes).
    Removing stm32f4xx_tim.o(i.TIM_ForcedOC1Config), (18 bytes).
    Removing stm32f4xx_tim.o(i.TIM_ForcedOC2Config), (26 bytes).
    Removing stm32f4xx_tim.o(i.TIM_ForcedOC3Config), (18 bytes).
    Removing stm32f4xx_tim.o(i.TIM_ForcedOC4Config), (26 bytes).
    Removing stm32f4xx_tim.o(i.TIM_GenerateEvent), (4 bytes).
    Removing stm32f4xx_tim.o(i.TIM_GetCapture1), (6 bytes).
    Removing stm32f4xx_tim.o(i.TIM_GetCapture2), (6 bytes).
    Removing stm32f4xx_tim.o(i.TIM_GetCapture3), (6 bytes).
    Removing stm32f4xx_tim.o(i.TIM_GetCapture4), (6 bytes).
    Removing stm32f4xx_tim.o(i.TIM_GetCounter), (6 bytes).
    Removing stm32f4xx_tim.o(i.TIM_GetFlagStatus), (18 bytes).
    Removing stm32f4xx_tim.o(i.TIM_GetPrescaler), (6 bytes).
    Removing stm32f4xx_tim.o(i.TIM_ICInit), (110 bytes).
    Removing stm32f4xx_tim.o(i.TIM_ICStructInit), (18 bytes).
    Removing stm32f4xx_tim.o(i.TIM_ITRxExternalClockConfig), (24 bytes).
    Removing stm32f4xx_tim.o(i.TIM_InternalClockConfig), (12 bytes).
    Removing stm32f4xx_tim.o(i.TIM_OC1FastConfig), (18 bytes).
    Removing stm32f4xx_tim.o(i.TIM_OC1NPolarityConfig), (18 bytes).
    Removing stm32f4xx_tim.o(i.TIM_OC1PolarityConfig), (18 bytes).
    Removing stm32f4xx_tim.o(i.TIM_OC2FastConfig), (26 bytes).
    Removing stm32f4xx_tim.o(i.TIM_OC2NPolarityConfig), (26 bytes).
    Removing stm32f4xx_tim.o(i.TIM_OC2PolarityConfig), (26 bytes).
    Removing stm32f4xx_tim.o(i.TIM_OC3FastConfig), (18 bytes).
    Removing stm32f4xx_tim.o(i.TIM_OC3Init), (160 bytes).
    Removing stm32f4xx_tim.o(i.TIM_OC3NPolarityConfig), (26 bytes).
    Removing stm32f4xx_tim.o(i.TIM_OC3PolarityConfig), (26 bytes).
    Removing stm32f4xx_tim.o(i.TIM_OC3PreloadConfig), (18 bytes).
    Removing stm32f4xx_tim.o(i.TIM_OC4FastConfig), (26 bytes).
    Removing stm32f4xx_tim.o(i.TIM_OC4PolarityConfig), (26 bytes).
    Removing stm32f4xx_tim.o(i.TIM_OCStructInit), (20 bytes).
    Removing stm32f4xx_tim.o(i.TIM_PWMIConfig), (124 bytes).
    Removing stm32f4xx_tim.o(i.TIM_PrescalerConfig), (6 bytes).
    Removing stm32f4xx_tim.o(i.TIM_RemapConfig), (6 bytes).
    Removing stm32f4xx_tim.o(i.TIM_SelectCCDMA), (24 bytes).
    Removing stm32f4xx_tim.o(i.TIM_SelectCOM), (24 bytes).
    Removing stm32f4xx_tim.o(i.TIM_SelectHallSensor), (24 bytes).
    Removing stm32f4xx_tim.o(i.TIM_SelectInputTrigger), (18 bytes).
    Removing stm32f4xx_tim.o(i.TIM_SelectMasterSlaveMode), (18 bytes).
    Removing stm32f4xx_tim.o(i.TIM_SelectOCxM), (86 bytes).
    Removing stm32f4xx_tim.o(i.TIM_SelectOnePulseMode), (18 bytes).
    Removing stm32f4xx_tim.o(i.TIM_SelectOutputTrigger), (18 bytes).
    Removing stm32f4xx_tim.o(i.TIM_SelectSlaveMode), (18 bytes).
    Removing stm32f4xx_tim.o(i.TIM_SetAutoreload), (4 bytes).
    Removing stm32f4xx_tim.o(i.TIM_SetClockDivision), (18 bytes).
    Removing stm32f4xx_tim.o(i.TIM_SetCompare1), (4 bytes).
    Removing stm32f4xx_tim.o(i.TIM_SetCompare2), (4 bytes).
    Removing stm32f4xx_tim.o(i.TIM_SetCompare3), (4 bytes).
    Removing stm32f4xx_tim.o(i.TIM_SetCompare4), (4 bytes).
    Removing stm32f4xx_tim.o(i.TIM_SetCounter), (4 bytes).
    Removing stm32f4xx_tim.o(i.TIM_SetIC1Prescaler), (18 bytes).
    Removing stm32f4xx_tim.o(i.TIM_SetIC2Prescaler), (26 bytes).
    Removing stm32f4xx_tim.o(i.TIM_SetIC3Prescaler), (18 bytes).
    Removing stm32f4xx_tim.o(i.TIM_SetIC4Prescaler), (26 bytes).
    Removing stm32f4xx_tim.o(i.TIM_TIxExternalClockConfig), (62 bytes).
    Removing stm32f4xx_tim.o(i.TIM_TimeBaseStructInit), (18 bytes).
    Removing stm32f4xx_tim.o(i.TIM_UpdateDisableConfig), (24 bytes).
    Removing stm32f4xx_tim.o(i.TIM_UpdateRequestConfig), (24 bytes).
    Removing stm32f4xx_usart.o(.rev16_text), (4 bytes).
    Removing stm32f4xx_usart.o(.revsh_text), (4 bytes).
    Removing stm32f4xx_usart.o(i.USART_ClearFlag), (18 bytes).
    Removing stm32f4xx_usart.o(i.USART_ClearITPendingBit), (30 bytes).
    Removing stm32f4xx_usart.o(i.USART_ClockInit), (32 bytes).
    Removing stm32f4xx_usart.o(i.USART_ClockStructInit), (12 bytes).
    Removing stm32f4xx_usart.o(i.USART_GetFlagStatus), (26 bytes).
    Removing stm32f4xx_usart.o(i.USART_HalfDuplexCmd), (24 bytes).
    Removing stm32f4xx_usart.o(i.USART_IrDACmd), (24 bytes).
    Removing stm32f4xx_usart.o(i.USART_IrDAConfig), (18 bytes).
    Removing stm32f4xx_usart.o(i.USART_LINBreakDetectLengthConfig), (18 bytes).
    Removing stm32f4xx_usart.o(i.USART_LINCmd), (24 bytes).
    Removing stm32f4xx_usart.o(i.USART_OneBitMethodCmd), (24 bytes).
    Removing stm32f4xx_usart.o(i.USART_OverSampling8Cmd), (22 bytes).
    Removing stm32f4xx_usart.o(i.USART_ReceiverWakeUpCmd), (24 bytes).
    Removing stm32f4xx_usart.o(i.USART_SendBreak), (10 bytes).
    Removing stm32f4xx_usart.o(i.USART_SendData), (8 bytes).
    Removing stm32f4xx_usart.o(i.USART_SetAddress), (18 bytes).
    Removing stm32f4xx_usart.o(i.USART_SetGuardTime), (16 bytes).
    Removing stm32f4xx_usart.o(i.USART_SetPrescaler), (16 bytes).
    Removing stm32f4xx_usart.o(i.USART_SmartCardCmd), (24 bytes).
    Removing stm32f4xx_usart.o(i.USART_SmartCardNACKCmd), (24 bytes).
    Removing stm32f4xx_usart.o(i.USART_StructInit), (24 bytes).
    Removing stm32f4xx_usart.o(i.USART_WakeUpConfig), (18 bytes).
    Removing delay.o(.rev16_text), (4 bytes).
    Removing delay.o(.revsh_text), (4 bytes).
    Removing delay.o(i.Delay), (12 bytes).
    Removing delay.o(i.delay_init), (60 bytes).
    Removing delay.o(i.delay_us), (24 bytes).
    Removing delay.o(.data), (4 bytes).
    Removing sys.o(.rev16_text), (4 bytes).
    Removing sys.o(.revsh_text), (4 bytes).
    Removing sys.o(.emb_text), (16 bytes).
    Removing usart.o(.rev16_text), (4 bytes).
    Removing usart.o(.revsh_text), (4 bytes).
    Removing buzzer.o(.rev16_text), (4 bytes).
    Removing buzzer.o(.revsh_text), (4 bytes).
    Removing buzzer.o(i.Buzzer_Task), (72 bytes).
    Removing buzzer.o(.data), (4 bytes).
    Removing can1.o(.rev16_text), (4 bytes).
    Removing can1.o(.revsh_text), (4 bytes).
    Removing led.o(.rev16_text), (4 bytes).
    Removing led.o(.revsh_text), (4 bytes).
    Removing mpu6500.o(.rev16_text), (4 bytes).
    Removing mpu6500.o(.revsh_text), (4 bytes).
    Removing mpu6500.o(i.IST8310_Init), (242 bytes).
    Removing mpu6500.o(i.IST_Reg_Read_By_MPU), (58 bytes).
    Removing mpu6500.o(i.IST_Reg_Write_By_MPU), (64 bytes).
    Removing mpu6500.o(i.MPU6500_Read_Regs), (40 bytes).
    Removing mpu6500.o(i.MPU_Auto_Read_IST_config), (140 bytes).
    Removing pwm.o(.rev16_text), (4 bytes).
    Removing pwm.o(.revsh_text), (4 bytes).
    Removing pwm.o(i.TIM12_PWM_Init), (204 bytes).
    Removing pwm.o(i.TIM1_PWM_Init), (320 bytes).
    Removing remotecontrol.o(.rev16_text), (4 bytes).
    Removing remotecontrol.o(.revsh_text), (4 bytes).
    Removing spi.o(.rev16_text), (4 bytes).
    Removing spi.o(.revsh_text), (4 bytes).
    Removing spi.o(i.SPI5_SetSpeed), (40 bytes).
    Removing comm_umpire.o(.rev16_text), (4 bytes).
    Removing comm_umpire.o(.revsh_text), (4 bytes).
    Removing comm_umpire.o(i.DmaSendDataProc), (44 bytes).
    Removing comm_umpire.o(i.SendByteInfoProc), (32 bytes).
    Removing comm_umpire.o(i.SendBytesInfoProc), (52 bytes).
    Removing digital.o(.rev16_text), (4 bytes).
    Removing digital.o(.revsh_text), (4 bytes).
    Removing can2.o(.rev16_text), (4 bytes).
    Removing can2.o(.revsh_text), (4 bytes).
    Removing can2.o(i.CAN2_Send), (84 bytes).
    Removing timer.o(.rev16_text), (4 bytes).
    Removing timer.o(.revsh_text), (4 bytes).
    Removing crc.o(i.Append_CRC16_Check_Sum), (40 bytes).
    Removing crc.o(i.Append_CRC8_Check_Sum), (36 bytes).
    Removing fric.o(.rev16_text), (4 bytes).
    Removing fric.o(.revsh_text), (4 bytes).
    Removing user_lib.o(i.ramp_calc), (90 bytes).
    Removing user_lib.o(i.ramp_init), (40 bytes).
    Removing power_ctrl.o(.rev16_text), (4 bytes).
    Removing power_ctrl.o(.revsh_text), (4 bytes).
    Removing power_ctrl.o(i.power_ctrl_on), (32 bytes).
    Removing power_ctrl.o(i.power_ctrl_toggle), (32 bytes).
    Removing ctrl_chassis.o(.rev16_text), (4 bytes).
    Removing ctrl_chassis.o(.revsh_text), (4 bytes).
    Removing ctrl_chassis.o(i.motor_speed_ctrl), (108 bytes).
    Removing higher_class.o(.rev16_text), (4 bytes).
    Removing higher_class.o(.revsh_text), (4 bytes).
    Removing higher_class.o(i.Vision_Mode), (56 bytes).
    Removing imu.o(.rev16_text), (4 bytes).
    Removing imu.o(.revsh_text), (4 bytes).
    Removing user_api.o(.rev16_text), (4 bytes).
    Removing user_api.o(.revsh_text), (4 bytes).
    Removing pid.o(.rev16_text), (4 bytes).
    Removing pid.o(.revsh_text), (4 bytes).
    Removing pid.o(i.Control_Device_LPF), (110 bytes).
    Removing pid.o(i.PID_Control_Div_LPF), (480 bytes).
    Removing pid.o(i.PID_Control_Err_LPF), (464 bytes).
    Removing pid.o(i.PID_Init), (2 bytes).
    Removing pid.o(i.PID_Integrate_Reset), (16 bytes).
    Removing pid.o(.data), (48 bytes).
    Removing shoot.o(.rev16_text), (4 bytes).
    Removing shoot.o(.revsh_text), (4 bytes).
    Removing shoot.o(i.shoot_init), (48 bytes).
    Removing shoot.o(i.shoot_speed), (72 bytes).
    Removing shoot.o(.bss), (92 bytes).
    Removing main.o(.rev16_text), (4 bytes).
    Removing main.o(.revsh_text), (4 bytes).
    Removing stm32f4xx_it.o(.rev16_text), (4 bytes).
    Removing stm32f4xx_it.o(.revsh_text), (4 bytes).
    Removing stm32f4xx_it.o(i.millis), (12 bytes).

514 unused section(s) (total 16070 bytes) removed from the image.

==============================================================================

Image Symbol Table

    Local Symbols

    Symbol Name                              Value     Ov Type        Size  Object(Section)

    ../clib/angel/boardlib.s                 0x00000000   Number         0  boardinit2.o ABSOLUTE
    ../clib/angel/boardlib.s                 0x00000000   Number         0  boardshut.o ABSOLUTE
    ../clib/angel/boardlib.s                 0x00000000   Number         0  boardinit3.o ABSOLUTE
    ../clib/angel/boardlib.s                 0x00000000   Number         0  boardinit1.o ABSOLUTE
    ../clib/angel/dczerorl2.s                0x00000000   Number         0  __dczerorl2.o ABSOLUTE
    ../clib/angel/handlers.s                 0x00000000   Number         0  __scatter_zi.o ABSOLUTE
    ../clib/angel/kernel.s                   0x00000000   Number         0  rtexit.o ABSOLUTE
    ../clib/angel/kernel.s                   0x00000000   Number         0  __rtentry2.o ABSOLUTE
    ../clib/angel/kernel.s                   0x00000000   Number         0  __rtentry.o ABSOLUTE
    ../clib/angel/kernel.s                   0x00000000   Number         0  __rtentry4.o ABSOLUTE
    ../clib/angel/kernel.s                   0x00000000   Number         0  rtexit2.o ABSOLUTE
    ../clib/angel/rt.s                       0x00000000   Number         0  rt_locale.o ABSOLUTE
    ../clib/angel/rt.s                       0x00000000   Number         0  rt_raise.o ABSOLUTE
    ../clib/angel/rt.s                       0x00000000   Number         0  rt_errno_addr.o ABSOLUTE
    ../clib/angel/rt.s                       0x00000000   Number         0  rt_locale_intlibspace.o ABSOLUTE
    ../clib/angel/rt.s                       0x00000000   Number         0  rt_errno_addr_intlibspace.o ABSOLUTE
    ../clib/angel/scatter.s                  0x00000000   Number         0  __scatter.o ABSOLUTE
    ../clib/angel/startup.s                  0x00000000   Number         0  __main.o ABSOLUTE
    ../clib/angel/sys.s                      0x00000000   Number         0  use_no_semi.o ABSOLUTE
    ../clib/angel/sys.s                      0x00000000   Number         0  indicate_semi.o ABSOLUTE
    ../clib/angel/sys.s                      0x00000000   Number         0  use_no_semi_2.o ABSOLUTE
    ../clib/angel/sys.s                      0x00000000   Number         0  libspace.o ABSOLUTE
    ../clib/angel/sys.s                      0x00000000   Number         0  sys_stackheap_outer.o ABSOLUTE
    ../clib/angel/sysapp.c                   0x00000000   Number         0  sys_wrch.o ABSOLUTE
    ../clib/angel/sysapp.c                   0x00000000   Number         0  sys_command.o ABSOLUTE
    ../clib/armsys.c                         0x00000000   Number         0  argv_veneer.o ABSOLUTE
    ../clib/armsys.c                         0x00000000   Number         0  _get_argv_nomalloc.o ABSOLUTE
    ../clib/armsys.c                         0x00000000   Number         0  argv_veneer.o ABSOLUTE
    ../clib/armsys.c                         0x00000000   Number         0  no_argv.o ABSOLUTE
    ../clib/bigflt.c                         0x00000000   Number         0  bigflt0.o ABSOLUTE
    ../clib/btod.s                           0x00000000   Number         0  btod.o ABSOLUTE
    ../clib/fenv.c                           0x00000000   Number         0  _rserrno.o ABSOLUTE
    ../clib/heapalloc.c                      0x00000000   Number         0  hrguard.o ABSOLUTE
    ../clib/heapaux.c                        0x00000000   Number         0  heapauxi.o ABSOLUTE
    ../clib/libinit.s                        0x00000000   Number         0  libshutdown.o ABSOLUTE
    ../clib/libinit.s                        0x00000000   Number         0  libinit.o ABSOLUTE
    ../clib/libinit.s                        0x00000000   Number         0  libshutdown2.o ABSOLUTE
    ../clib/libinit.s                        0x00000000   Number         0  libinit2.o ABSOLUTE
    ../clib/locale.s                         0x00000000   Number         0  lc_numeric_c.o ABSOLUTE
    ../clib/longlong.s                       0x00000000   Number         0  lludiv10.o ABSOLUTE
    ../clib/memcpset.s                       0x00000000   Number         0  strcmpv7m.o ABSOLUTE
    ../clib/memcpset.s                       0x00000000   Number         0  rt_memcpy_w.o ABSOLUTE
    ../clib/printf.c                         0x00000000   Number         0  __printf_flags_ss.o ABSOLUTE
    ../clib/printf.c                         0x00000000   Number         0  _printf_fp_dec.o ABSOLUTE
    ../clib/printf.c                         0x00000000   Number         0  __printf_flags_wp.o ABSOLUTE
    ../clib/printf.c                         0x00000000   Number         0  _printf_char_file.o ABSOLUTE
    ../clib/printf.c                         0x00000000   Number         0  __printf_wp.o ABSOLUTE
    ../clib/printf.c                         0x00000000   Number         0  __printf_nopercent.o ABSOLUTE
    ../clib/printf.c                         0x00000000   Number         0  __printf_flags_ss_wp.o ABSOLUTE
    ../clib/printf.c                         0x00000000   Number         0  __2printf.o ABSOLUTE
    ../clib/printf.c                         0x00000000   Number         0  noretval__2printf.o ABSOLUTE
    ../clib/printf.c                         0x00000000   Number         0  __printf.o ABSOLUTE
    ../clib/printf.c                         0x00000000   Number         0  __printf_ss.o ABSOLUTE
    ../clib/printf.c                         0x00000000   Number         0  __printf_ss_wp.o ABSOLUTE
    ../clib/printf.c                         0x00000000   Number         0  _printf_fp_infnan.o ABSOLUTE
    ../clib/printf.c                         0x00000000   Number         0  _printf_char_common.o ABSOLUTE
    ../clib/printf.c                         0x00000000   Number         0  __printf_flags.o ABSOLUTE
    ../clib/printf_percent.s                 0x00000000   Number         0  _printf_percent_end.o ABSOLUTE
    ../clib/printf_percent.s                 0x00000000   Number         0  _printf_percent.o ABSOLUTE
    ../clib/printf_percent.s                 0x00000000   Number         0  _printf_f.o ABSOLUTE
    ../clib/signal.c                         0x00000000   Number         0  defsig_segv_inner.o ABSOLUTE
    ../clib/signal.c                         0x00000000   Number         0  defsig_cppl_inner.o ABSOLUTE
    ../clib/signal.c                         0x00000000   Number         0  defsig_rtmem_formal.o ABSOLUTE
    ../clib/signal.c                         0x00000000   Number         0  defsig_rtmem_outer.o ABSOLUTE
    ../clib/signal.c                         0x00000000   Number         0  defsig_pvfn_inner.o ABSOLUTE
    ../clib/signal.c                         0x00000000   Number         0  defsig_stak_inner.o ABSOLUTE
    ../clib/signal.c                         0x00000000   Number         0  defsig_rtred_inner.o ABSOLUTE
    ../clib/signal.c                         0x00000000   Number         0  defsig_fpe_inner.o ABSOLUTE
    ../clib/signal.c                         0x00000000   Number         0  defsig_abrt_inner.o ABSOLUTE
    ../clib/signal.c                         0x00000000   Number         0  defsig_general.o ABSOLUTE
    ../clib/signal.c                         0x00000000   Number         0  __raise.o ABSOLUTE
    ../clib/signal.c                         0x00000000   Number         0  defsig_rtmem_inner.o ABSOLUTE
    ../clib/signal.c                         0x00000000   Number         0  defsig_exit.o ABSOLUTE
    ../clib/signal.c                         0x00000000   Number         0  defsig_other.o ABSOLUTE
    ../clib/signal.s                         0x00000000   Number         0  defsig.o ABSOLUTE
    ../clib/stdio.c                          0x00000000   Number         0  ferror_locked.o ABSOLUTE
    ../clib/stdio.c                          0x00000000   Number         0  ferror.o ABSOLUTE
    ../clib/stdlib.c                         0x00000000   Number         0  exit.o ABSOLUTE
    ../fplib/basic.s                         0x00000000   Number         0  basic.o ABSOLUTE
    ../fplib/d2f.s                           0x00000000   Number         0  d2f.o ABSOLUTE
    ../fplib/daddsub.s                       0x00000000   Number         0  daddsub_clz.o ABSOLUTE
    ../fplib/dcmpi.s                         0x00000000   Number         0  dcmpi.o ABSOLUTE
    ../fplib/ddiv.s                          0x00000000   Number         0  ddiv.o ABSOLUTE
    ../fplib/deqf.s                          0x00000000   Number         0  deqf.o ABSOLUTE
    ../fplib/dfix.s                          0x00000000   Number         0  dfix.o ABSOLUTE
    ../fplib/dflt.s                          0x00000000   Number         0  dflt_clz.o ABSOLUTE
    ../fplib/dleqf.s                         0x00000000   Number         0  dleqf.o ABSOLUTE
    ../fplib/dmul.s                          0x00000000   Number         0  dmul.o ABSOLUTE
    ../fplib/dnaninf.s                       0x00000000   Number         0  dnaninf.o ABSOLUTE
    ../fplib/dretinf.s                       0x00000000   Number         0  dretinf.o ABSOLUTE
    ../fplib/dsqrt.s                         0x00000000   Number         0  dsqrt_umaal.o ABSOLUTE
    ../fplib/f2d.s                           0x00000000   Number         0  f2d.o ABSOLUTE
    ../fplib/fnaninf.s                       0x00000000   Number         0  fnaninf.o ABSOLUTE
    ../fplib/fpinit.s                        0x00000000   Number         0  fpinit.o ABSOLUTE
    ../fplib/fretinf.s                       0x00000000   Number         0  fretinf.o ABSOLUTE
    ../fplib/istatus.s                       0x00000000   Number         0  istatus.o ABSOLUTE
    ../fplib/printf1.s                       0x00000000   Number         0  printf1.o ABSOLUTE
    ../fplib/usenofp.s                       0x00000000   Number         0  usenofp.o ABSOLUTE
    ../mathlib/asinf.c                       0x00000000   Number         0  asinf_x.o ABSOLUTE
    ../mathlib/asinf.c                       0x00000000   Number         0  asinf.o ABSOLUTE
    ../mathlib/atan.c                        0x00000000   Number         0  atan.o ABSOLUTE
    ../mathlib/atan.c                        0x00000000   Number         0  atan_x.o ABSOLUTE
    ../mathlib/atan2.c                       0x00000000   Number         0  atan2_x.o ABSOLUTE
    ../mathlib/atan2.c                       0x00000000   Number         0  atan2.o ABSOLUTE
    ../mathlib/atan2f.c                      0x00000000   Number         0  atan2f_x.o ABSOLUTE
    ../mathlib/atan2f.c                      0x00000000   Number         0  atan2f.o ABSOLUTE
    ../mathlib/cosf.c                        0x00000000   Number         0  cosf.o ABSOLUTE
    ../mathlib/cosf.c                        0x00000000   Number         0  cosf_x.o ABSOLUTE
    ../mathlib/dunder.c                      0x00000000   Number         0  dunder.o ABSOLUTE
    ../mathlib/fabs.c                        0x00000000   Number         0  fabs.o ABSOLUTE
    ../mathlib/fpclassify.c                  0x00000000   Number         0  fpclassify.o ABSOLUTE
    ../mathlib/fpclassifyf.c                 0x00000000   Number         0  fpclassifyf.o ABSOLUTE
    ../mathlib/funder.c                      0x00000000   Number         0  funder.o ABSOLUTE
    ../mathlib/poly.c                        0x00000000   Number         0  poly.o ABSOLUTE
    ../mathlib/qnan.c                        0x00000000   Number         0  qnan.o ABSOLUTE
    ../mathlib/rredf.c                       0x00000000   Number         0  rredf.o ABSOLUTE
    ../mathlib/sinf.c                        0x00000000   Number         0  sinf.o ABSOLUTE
    ../mathlib/sinf.c                        0x00000000   Number         0  sinf_x.o ABSOLUTE
    ../mathlib/sqrt.c                        0x00000000   Number         0  sqrt.o ABSOLUTE
    ../mathlib/sqrt.c                        0x00000000   Number         0  sqrt_x.o ABSOLUTE
    ../mathlib/sqrtf.c                       0x00000000   Number         0  sqrtf_x.o ABSOLUTE
    ../mathlib/sqrtf.c                       0x00000000   Number         0  sqrtf.o ABSOLUTE
    ../mathlib/tanf.c                        0x00000000   Number         0  tanf.o ABSOLUTE
    ../mathlib/tanf.c                        0x00000000   Number         0  tanf_x.o ABSOLUTE
    Applications\Ctrl_chassis.c              0x00000000   Number         0  ctrl_chassis.o ABSOLUTE
    Applications\Ctrl_gimbal.c               0x00000000   Number         0  ctrl_gimbal.o ABSOLUTE
    Applications\Higher_Class.c              0x00000000   Number         0  higher_class.o ABSOLUTE
    Applications\IMU.c                       0x00000000   Number         0  imu.o ABSOLUTE
    Applications\PID.c                       0x00000000   Number         0  pid.o ABSOLUTE
    Applications\Shoot.c                     0x00000000   Number         0  shoot.o ABSOLUTE
    Applications\User_API.c                  0x00000000   Number         0  user_api.o ABSOLUTE
    Applications\\Ctrl_chassis.c             0x00000000   Number         0  ctrl_chassis.o ABSOLUTE
    Applications\\Higher_Class.c             0x00000000   Number         0  higher_class.o ABSOLUTE
    Applications\\IMU.c                      0x00000000   Number         0  imu.o ABSOLUTE
    Applications\\PID.c                      0x00000000   Number         0  pid.o ABSOLUTE
    Applications\\Shoot.c                    0x00000000   Number         0  shoot.o ABSOLUTE
    Applications\\User_API.c                 0x00000000   Number         0  user_api.o ABSOLUTE
    Applications\filter.c                    0x00000000   Number         0  filter.o ABSOLUTE
    Drivers\CRC.c                            0x00000000   Number         0  crc.o ABSOLUTE
    Drivers\Comm_umpire.c                    0x00000000   Number         0  comm_umpire.o ABSOLUTE
    Drivers\MPU6500.c                        0x00000000   Number         0  mpu6500.o ABSOLUTE
    Drivers\RemoteControl.c                  0x00000000   Number         0  remotecontrol.o ABSOLUTE
    Drivers\\Comm_umpire.c                   0x00000000   Number         0  comm_umpire.o ABSOLUTE
    Drivers\\MPU6500.c                       0x00000000   Number         0  mpu6500.o ABSOLUTE
    Drivers\\RemoteControl.c                 0x00000000   Number         0  remotecontrol.o ABSOLUTE
    Drivers\\buzzer.c                        0x00000000   Number         0  buzzer.o ABSOLUTE
    Drivers\\can1.c                          0x00000000   Number         0  can1.o ABSOLUTE
    Drivers\\can2.c                          0x00000000   Number         0  can2.o ABSOLUTE
    Drivers\\digital.c                       0x00000000   Number         0  digital.o ABSOLUTE
    Drivers\\fric.c                          0x00000000   Number         0  fric.o ABSOLUTE
    Drivers\\led.c                           0x00000000   Number         0  led.o ABSOLUTE
    Drivers\\power_ctrl\\power_ctrl.c        0x00000000   Number         0  power_ctrl.o ABSOLUTE
    Drivers\\pwm.c                           0x00000000   Number         0  pwm.o ABSOLUTE
    Drivers\\spi.c                           0x00000000   Number         0  spi.o ABSOLUTE
    Drivers\\timer.c                         0x00000000   Number         0  timer.o ABSOLUTE
    Drivers\buzzer.c                         0x00000000   Number         0  buzzer.o ABSOLUTE
    Drivers\can1.c                           0x00000000   Number         0  can1.o ABSOLUTE
    Drivers\can2.c                           0x00000000   Number         0  can2.o ABSOLUTE
    Drivers\digital.c                        0x00000000   Number         0  digital.o ABSOLUTE
    Drivers\fric.c                           0x00000000   Number         0  fric.o ABSOLUTE
    Drivers\led.c                            0x00000000   Number         0  led.o ABSOLUTE
    Drivers\power_ctrl\power_ctrl.c          0x00000000   Number         0  power_ctrl.o ABSOLUTE
    Drivers\pwm.c                            0x00000000   Number         0  pwm.o ABSOLUTE
    Drivers\spi.c                            0x00000000   Number         0  spi.o ABSOLUTE
    Drivers\timer.c                          0x00000000   Number         0  timer.o ABSOLUTE
    Drivers\user_lib.c                       0x00000000   Number         0  user_lib.o ABSOLUTE
    Libraries\FWLIB\src\misc.c               0x00000000   Number         0  misc.o ABSOLUTE
    Libraries\FWLIB\src\stm32f4xx_adc.c      0x00000000   Number         0  stm32f4xx_adc.o ABSOLUTE
    Libraries\FWLIB\src\stm32f4xx_can.c      0x00000000   Number         0  stm32f4xx_can.o ABSOLUTE
    Libraries\FWLIB\src\stm32f4xx_dbgmcu.c   0x00000000   Number         0  stm32f4xx_dbgmcu.o ABSOLUTE
    Libraries\FWLIB\src\stm32f4xx_dma.c      0x00000000   Number         0  stm32f4xx_dma.o ABSOLUTE
    Libraries\FWLIB\src\stm32f4xx_exti.c     0x00000000   Number         0  stm32f4xx_exti.o ABSOLUTE
    Libraries\FWLIB\src\stm32f4xx_flash.c    0x00000000   Number         0  stm32f4xx_flash.o ABSOLUTE
    Libraries\FWLIB\src\stm32f4xx_gpio.c     0x00000000   Number         0  stm32f4xx_gpio.o ABSOLUTE
    Libraries\FWLIB\src\stm32f4xx_i2c.c      0x00000000   Number         0  stm32f4xx_i2c.o ABSOLUTE
    Libraries\FWLIB\src\stm32f4xx_pwr.c      0x00000000   Number         0  stm32f4xx_pwr.o ABSOLUTE
    Libraries\FWLIB\src\stm32f4xx_rcc.c      0x00000000   Number         0  stm32f4xx_rcc.o ABSOLUTE
    Libraries\FWLIB\src\stm32f4xx_rng.c      0x00000000   Number         0  stm32f4xx_rng.o ABSOLUTE
    Libraries\FWLIB\src\stm32f4xx_sdio.c     0x00000000   Number         0  stm32f4xx_sdio.o ABSOLUTE
    Libraries\FWLIB\src\stm32f4xx_spi.c      0x00000000   Number         0  stm32f4xx_spi.o ABSOLUTE
    Libraries\FWLIB\src\stm32f4xx_syscfg.c   0x00000000   Number         0  stm32f4xx_syscfg.o ABSOLUTE
    Libraries\FWLIB\src\stm32f4xx_tim.c      0x00000000   Number         0  stm32f4xx_tim.o ABSOLUTE
    Libraries\FWLIB\src\stm32f4xx_usart.c    0x00000000   Number         0  stm32f4xx_usart.o ABSOLUTE
    Libraries\StartUp\startup_stm32f427xx.s  0x00000000   Number         0  startup_stm32f427xx.o ABSOLUTE
    Libraries\StartUp\system_stm32f4xx.c     0x00000000   Number         0  system_stm32f4xx.o ABSOLUTE
    Libraries\\FWLIB\\src\\misc.c            0x00000000   Number         0  misc.o ABSOLUTE
    Libraries\\FWLIB\\src\\stm32f4xx_adc.c   0x00000000   Number         0  stm32f4xx_adc.o ABSOLUTE
    Libraries\\FWLIB\\src\\stm32f4xx_can.c   0x00000000   Number         0  stm32f4xx_can.o ABSOLUTE
    Libraries\\FWLIB\\src\\stm32f4xx_dbgmcu.c 0x00000000   Number         0  stm32f4xx_dbgmcu.o ABSOLUTE
    Libraries\\FWLIB\\src\\stm32f4xx_dma.c   0x00000000   Number         0  stm32f4xx_dma.o ABSOLUTE
    Libraries\\FWLIB\\src\\stm32f4xx_exti.c  0x00000000   Number         0  stm32f4xx_exti.o ABSOLUTE
    Libraries\\FWLIB\\src\\stm32f4xx_flash.c 0x00000000   Number         0  stm32f4xx_flash.o ABSOLUTE
    Libraries\\FWLIB\\src\\stm32f4xx_gpio.c  0x00000000   Number         0  stm32f4xx_gpio.o ABSOLUTE
    Libraries\\FWLIB\\src\\stm32f4xx_i2c.c   0x00000000   Number         0  stm32f4xx_i2c.o ABSOLUTE
    Libraries\\FWLIB\\src\\stm32f4xx_pwr.c   0x00000000   Number         0  stm32f4xx_pwr.o ABSOLUTE
    Libraries\\FWLIB\\src\\stm32f4xx_rcc.c   0x00000000   Number         0  stm32f4xx_rcc.o ABSOLUTE
    Libraries\\FWLIB\\src\\stm32f4xx_rng.c   0x00000000   Number         0  stm32f4xx_rng.o ABSOLUTE
    Libraries\\FWLIB\\src\\stm32f4xx_sdio.c  0x00000000   Number         0  stm32f4xx_sdio.o ABSOLUTE
    Libraries\\FWLIB\\src\\stm32f4xx_spi.c   0x00000000   Number         0  stm32f4xx_spi.o ABSOLUTE
    Libraries\\FWLIB\\src\\stm32f4xx_syscfg.c 0x00000000   Number         0  stm32f4xx_syscfg.o ABSOLUTE
    Libraries\\FWLIB\\src\\stm32f4xx_tim.c   0x00000000   Number         0  stm32f4xx_tim.o ABSOLUTE
    Libraries\\FWLIB\\src\\stm32f4xx_usart.c 0x00000000   Number         0  stm32f4xx_usart.o ABSOLUTE
    Libraries\\StartUp\\system_stm32f4xx.c   0x00000000   Number         0  system_stm32f4xx.o ABSOLUTE
    SYSTEM\\delay\\delay.c                   0x00000000   Number         0  delay.o ABSOLUTE
    SYSTEM\\sys\\sys.c                       0x00000000   Number         0  sys.o ABSOLUTE
    SYSTEM\\usart\\usart.c                   0x00000000   Number         0  usart.o ABSOLUTE
    SYSTEM\delay\delay.c                     0x00000000   Number         0  delay.o ABSOLUTE
    SYSTEM\sys\sys.c                         0x00000000   Number         0  sys.o ABSOLUTE
    SYSTEM\usart\usart.c                     0x00000000   Number         0  usart.o ABSOLUTE
    USER\\main.c                             0x00000000   Number         0  main.o ABSOLUTE
    USER\\stm32f4xx_it.c                     0x00000000   Number         0  stm32f4xx_it.o ABSOLUTE
    USER\main.c                              0x00000000   Number         0  main.o ABSOLUTE
    USER\stm32f4xx_it.c                      0x00000000   Number         0  stm32f4xx_it.o ABSOLUTE
    dc.s                                     0x00000000   Number         0  dc.o ABSOLUTE
    RESET                                    0x08000000   Section      428  startup_stm32f427xx.o(RESET)
    !!!main                                  0x080001ac   Section        8  __main.o(!!!main)
    !!!scatter                               0x080001b4   Section       52  __scatter.o(!!!scatter)
    !!dczerorl2                              0x080001e8   Section       90  __dczerorl2.o(!!dczerorl2)
    !!handler_zi                             0x08000244   Section       28  __scatter_zi.o(!!handler_zi)
    .ARM.Collect$$_printf_percent$$00000000  0x08000260   Section        0  _printf_percent.o(.ARM.Collect$$_printf_percent$$00000000)
    .ARM.Collect$$_printf_percent$$00000003  0x08000260   Section        6  _printf_f.o(.ARM.Collect$$_printf_percent$$00000003)
    .ARM.Collect$$_printf_percent$$00000017  0x08000266   Section        4  _printf_percent_end.o(.ARM.Collect$$_printf_percent$$00000017)
    .ARM.Collect$$libinit$$00000000          0x0800026a   Section        2  libinit.o(.ARM.Collect$$libinit$$00000000)
    .ARM.Collect$$libinit$$00000001          0x0800026c   Section        4  libinit2.o(.ARM.Collect$$libinit$$00000001)
    .ARM.Collect$$libinit$$00000004          0x08000270   Section        0  libinit2.o(.ARM.Collect$$libinit$$00000004)
    .ARM.Collect$$libinit$$0000000A          0x08000270   Section        0  libinit2.o(.ARM.Collect$$libinit$$0000000A)
    .ARM.Collect$$libinit$$0000000C          0x08000270   Section        0  libinit2.o(.ARM.Collect$$libinit$$0000000C)
    .ARM.Collect$$libinit$$0000000E          0x08000270   Section        0  libinit2.o(.ARM.Collect$$libinit$$0000000E)
    .ARM.Collect$$libinit$$0000000F          0x08000270   Section        6  libinit2.o(.ARM.Collect$$libinit$$0000000F)
    .ARM.Collect$$libinit$$00000011          0x08000276   Section        0  libinit2.o(.ARM.Collect$$libinit$$00000011)
    .ARM.Collect$$libinit$$00000013          0x08000276   Section        0  libinit2.o(.ARM.Collect$$libinit$$00000013)
    .ARM.Collect$$libinit$$00000015          0x08000276   Section        0  libinit2.o(.ARM.Collect$$libinit$$00000015)
    .ARM.Collect$$libinit$$00000016          0x08000276   Section       10  libinit2.o(.ARM.Collect$$libinit$$00000016)
    .ARM.Collect$$libinit$$00000017          0x08000280   Section        0  libinit2.o(.ARM.Collect$$libinit$$00000017)
    .ARM.Collect$$libinit$$00000019          0x08000280   Section        0  libinit2.o(.ARM.Collect$$libinit$$00000019)
    .ARM.Collect$$libinit$$0000001B          0x08000280   Section        0  libinit2.o(.ARM.Collect$$libinit$$0000001B)
    .ARM.Collect$$libinit$$0000001D          0x08000280   Section        0  libinit2.o(.ARM.Collect$$libinit$$0000001D)
    .ARM.Collect$$libinit$$0000001F          0x08000280   Section        0  libinit2.o(.ARM.Collect$$libinit$$0000001F)
    .ARM.Collect$$libinit$$00000021          0x08000280   Section        0  libinit2.o(.ARM.Collect$$libinit$$00000021)
    .ARM.Collect$$libinit$$00000023          0x08000280   Section        0  libinit2.o(.ARM.Collect$$libinit$$00000023)
    .ARM.Collect$$libinit$$00000025          0x08000280   Section        0  libinit2.o(.ARM.Collect$$libinit$$00000025)
    .ARM.Collect$$libinit$$0000002C          0x08000280   Section        0  libinit2.o(.ARM.Collect$$libinit$$0000002C)
    .ARM.Collect$$libinit$$0000002E          0x08000280   Section        0  libinit2.o(.ARM.Collect$$libinit$$0000002E)
    .ARM.Collect$$libinit$$00000030          0x08000280   Section        0  libinit2.o(.ARM.Collect$$libinit$$00000030)
    .ARM.Collect$$libinit$$00000032          0x08000280   Section        0  libinit2.o(.ARM.Collect$$libinit$$00000032)
    .ARM.Collect$$libinit$$00000033          0x08000280   Section        2  libinit2.o(.ARM.Collect$$libinit$$00000033)
    .ARM.Collect$$libshutdown$$00000000      0x08000282   Section        2  libshutdown.o(.ARM.Collect$$libshutdown$$00000000)
    .ARM.Collect$$libshutdown$$00000002      0x08000284   Section        0  libshutdown2.o(.ARM.Collect$$libshutdown$$00000002)
    .ARM.Collect$$libshutdown$$00000004      0x08000284   Section        0  libshutdown2.o(.ARM.Collect$$libshutdown$$00000004)
    .ARM.Collect$$libshutdown$$00000006      0x08000284   Section        0  libshutdown2.o(.ARM.Collect$$libshutdown$$00000006)
    .ARM.Collect$$libshutdown$$00000009      0x08000284   Section        0  libshutdown2.o(.ARM.Collect$$libshutdown$$00000009)
    .ARM.Collect$$libshutdown$$0000000C      0x08000284   Section        0  libshutdown2.o(.ARM.Collect$$libshutdown$$0000000C)
    .ARM.Collect$$libshutdown$$0000000E      0x08000284   Section        0  libshutdown2.o(.ARM.Collect$$libshutdown$$0000000E)
    .ARM.Collect$$libshutdown$$00000011      0x08000284   Section        0  libshutdown2.o(.ARM.Collect$$libshutdown$$00000011)
    .ARM.Collect$$libshutdown$$00000012      0x08000284   Section        2  libshutdown2.o(.ARM.Collect$$libshutdown$$00000012)
    .ARM.Collect$$rtentry$$00000000          0x08000286   Section        0  __rtentry.o(.ARM.Collect$$rtentry$$00000000)
    .ARM.Collect$$rtentry$$00000002          0x08000286   Section        0  __rtentry2.o(.ARM.Collect$$rtentry$$00000002)
    .ARM.Collect$$rtentry$$00000004          0x08000286   Section        6  __rtentry4.o(.ARM.Collect$$rtentry$$00000004)
    .ARM.Collect$$rtentry$$00000009          0x0800028c   Section        0  __rtentry2.o(.ARM.Collect$$rtentry$$00000009)
    .ARM.Collect$$rtentry$$0000000A          0x0800028c   Section        4  __rtentry2.o(.ARM.Collect$$rtentry$$0000000A)
    .ARM.Collect$$rtentry$$0000000C          0x08000290   Section        0  __rtentry2.o(.ARM.Collect$$rtentry$$0000000C)
    .ARM.Collect$$rtentry$$0000000D          0x08000290   Section        8  __rtentry2.o(.ARM.Collect$$rtentry$$0000000D)
    .ARM.Collect$$rtexit$$00000000           0x08000298   Section        2  rtexit.o(.ARM.Collect$$rtexit$$00000000)
    .ARM.Collect$$rtexit$$00000002           0x0800029a   Section        0  rtexit2.o(.ARM.Collect$$rtexit$$00000002)
    .ARM.Collect$$rtexit$$00000003           0x0800029a   Section        4  rtexit2.o(.ARM.Collect$$rtexit$$00000003)
    .ARM.Collect$$rtexit$$00000004           0x0800029e   Section        6  rtexit2.o(.ARM.Collect$$rtexit$$00000004)
    .text                                    0x080002a4   Section       64  startup_stm32f427xx.o(.text)
    $v0                                      0x080002a4   Number         0  startup_stm32f427xx.o(.text)
    .text                                    0x080002e4   Section        2  use_no_semi_2.o(.text)
    .text                                    0x080002e8   Section        0  noretval__2printf.o(.text)
    .text                                    0x08000300   Section        0  __printf.o(.text)
    .text                                    0x08000368   Section      100  rt_memcpy_w.o(.text)
    .text                                    0x080003cc   Section        0  heapauxi.o(.text)
    .text                                    0x080003d2   Section        2  use_no_semi.o(.text)
    .text                                    0x080003d4   Section        0  _rserrno.o(.text)
    .text                                    0x080003ea   Section        0  _printf_fp_dec.o(.text)
    _fp_digits                               0x080003ed   Thumb Code   432  _printf_fp_dec.o(.text)
    .text                                    0x08000808   Section        0  _printf_char_file.o(.text)
    .text                                    0x0800082c   Section        8  rt_locale_intlibspace.o(.text)
    .text                                    0x08000834   Section        8  rt_errno_addr_intlibspace.o(.text)
    .text                                    0x0800083c   Section      138  lludiv10.o(.text)
    .text                                    0x080008c8   Section        0  _printf_char_common.o(.text)
    _printf_input_char                       0x080008c9   Thumb Code    10  _printf_char_common.o(.text)
    .text                                    0x080008f8   Section        0  _printf_fp_infnan.o(.text)
    .text                                    0x08000978   Section        0  bigflt0.o(.text)
    .text                                    0x08000a5c   Section        0  ferror.o(.text)
    .text                                    0x08000a64   Section        8  libspace.o(.text)
    .text                                    0x08000a6c   Section       74  sys_stackheap_outer.o(.text)
    .text                                    0x08000ab6   Section        0  exit.o(.text)
    .text                                    0x08000ac8   Section      128  strcmpv7m.o(.text)
    CL$$btod_d2e                             0x08000b48   Section       62  btod.o(CL$$btod_d2e)
    CL$$btod_d2e_denorm_low                  0x08000b86   Section       70  btod.o(CL$$btod_d2e_denorm_low)
    CL$$btod_d2e_norm_op1                    0x08000bcc   Section       96  btod.o(CL$$btod_d2e_norm_op1)
    CL$$btod_div_common                      0x08000c2c   Section      824  btod.o(CL$$btod_div_common)
    CL$$btod_e2e                             0x08000f64   Section      220  btod.o(CL$$btod_e2e)
    CL$$btod_ediv                            0x08001040   Section       42  btod.o(CL$$btod_ediv)
    CL$$btod_emul                            0x0800106a   Section       42  btod.o(CL$$btod_emul)
    CL$$btod_mult_common                     0x08001094   Section      580  btod.o(CL$$btod_mult_common)
    i.Angle_deal                             0x080012d8   Section        0  can1.o(i.Angle_deal)
    i.Astrict_Acc                            0x08001430   Section        0  higher_class.o(i.Astrict_Acc)
    i.BusFault_Handler                       0x08001790   Section        0  stm32f4xx_it.o(i.BusFault_Handler)
    i.CAN1_Configuration                     0x08001794   Section        0  can1.o(i.CAN1_Configuration)
    i.CAN1_RX0_IRQHandler                    0x08001894   Section        0  can1.o(i.CAN1_RX0_IRQHandler)
    i.CAN1_SendCommand_chassis               0x08001b50   Section        0  can1.o(i.CAN1_SendCommand_chassis)
    i.CAN1_Send_Msg_gimbal                   0x08001bdc   Section        0  can1.o(i.CAN1_Send_Msg_gimbal)
    i.CAN2_Configuration                     0x08001c4c   Section        0  can2.o(i.CAN2_Configuration)
    i.CAN2_RX0_IRQHandler                    0x08001d50   Section        0  can2.o(i.CAN2_RX0_IRQHandler)
    i.CAN_ClearFlag                          0x08001e50   Section        0  stm32f4xx_can.o(i.CAN_ClearFlag)
    i.CAN_ClearITPendingBit                  0x08001e88   Section        0  stm32f4xx_can.o(i.CAN_ClearITPendingBit)
    i.CAN_DeInit                             0x08001f30   Section        0  stm32f4xx_can.o(i.CAN_DeInit)
    i.CAN_FilterInit                         0x08001f68   Section        0  stm32f4xx_can.o(i.CAN_FilterInit)
    i.CAN_GetITStatus                        0x08002070   Section        0  stm32f4xx_can.o(i.CAN_GetITStatus)
    i.CAN_ITConfig                           0x08002190   Section        0  stm32f4xx_can.o(i.CAN_ITConfig)
    i.CAN_Init                               0x080021a2   Section        0  stm32f4xx_can.o(i.CAN_Init)
    i.CAN_Receive                            0x080022b6   Section        0  stm32f4xx_can.o(i.CAN_Receive)
    i.CAN_StructInit                         0x080023a6   Section        0  stm32f4xx_can.o(i.CAN_StructInit)
    i.CAN_Transmit                           0x080023c6   Section        0  stm32f4xx_can.o(i.CAN_Transmit)
    i.CAN_TransmitStatus                     0x080024ec   Section        0  stm32f4xx_can.o(i.CAN_TransmitStatus)
    i.Chassis_AutoFollow                     0x0800258c   Section        0  shoot.o(i.Chassis_AutoFollow)
    i.Chassis_Task                           0x08002818   Section        0  user_api.o(i.Chassis_Task)
    i.CheckITStatus                          0x0800289c   Section        0  stm32f4xx_can.o(i.CheckITStatus)
    CheckITStatus                            0x0800289d   Thumb Code    18  stm32f4xx_can.o(i.CheckITStatus)
    i.Comm_umpire_Init                       0x080028b0   Section        0  comm_umpire.o(i.Comm_umpire_Init)
    i.DMA2_Stream5_IRQHandler                0x080029c8   Section        0  remotecontrol.o(i.DMA2_Stream5_IRQHandler)
    i.DMA2_Stream7_IRQHandler                0x080029f8   Section        0  comm_umpire.o(i.DMA2_Stream7_IRQHandler)
    i.DMA_ClearFlag                          0x08002a18   Section        0  stm32f4xx_dma.o(i.DMA_ClearFlag)
    i.DMA_ClearITPendingBit                  0x08002a4c   Section        0  stm32f4xx_dma.o(i.DMA_ClearITPendingBit)
    i.DMA_Cmd                                0x08002a80   Section        0  stm32f4xx_dma.o(i.DMA_Cmd)
    i.DMA_DeInit                             0x08002a98   Section        0  stm32f4xx_dma.o(i.DMA_DeInit)
    i.DMA_GetCurrDataCounter                 0x08002bf0   Section        0  stm32f4xx_dma.o(i.DMA_GetCurrDataCounter)
    i.DMA_GetFlagStatus                      0x08002bf8   Section        0  stm32f4xx_dma.o(i.DMA_GetFlagStatus)
    i.DMA_ITConfig                           0x08002c3c   Section        0  stm32f4xx_dma.o(i.DMA_ITConfig)
    i.DMA_Init                               0x08002c78   Section        0  stm32f4xx_dma.o(i.DMA_Init)
    i.DMA_SetCurrDataCounter                 0x08002cd0   Section        0  stm32f4xx_dma.o(i.DMA_SetCurrDataCounter)
    i.DealDataPack                           0x08002cd4   Section        0  comm_umpire.o(i.DealDataPack)
    i.DebugMon_Handler                       0x08002e80   Section        0  stm32f4xx_it.o(i.DebugMon_Handler)
    i.Encoder_angle_conversion               0x08002e84   Section        0  shoot.o(i.Encoder_angle_conversion)
    i.FailSafe_Check                         0x08002f90   Section        0  remotecontrol.o(i.FailSafe_Check)
    i.GPIO_Init                              0x08002fbc   Section        0  stm32f4xx_gpio.o(i.GPIO_Init)
    i.GPIO_PinAFConfig                       0x0800304c   Section        0  stm32f4xx_gpio.o(i.GPIO_PinAFConfig)
    i.GPIO_ResetBits                         0x08003092   Section        0  stm32f4xx_gpio.o(i.GPIO_ResetBits)
    i.GPIO_SetBits                           0x08003096   Section        0  stm32f4xx_gpio.o(i.GPIO_SetBits)
    i.Get_CRC16_Check_Sum                    0x0800309c   Section        0  crc.o(i.Get_CRC16_Check_Sum)
    i.Get_CRC8_Check_Sum                     0x080030c8   Section        0  crc.o(i.Get_CRC8_Check_Sum)
    i.Get_Ctrl_Data                          0x080030ec   Section        0  user_api.o(i.Get_Ctrl_Data)
    i.Get_RC_Data                            0x080035cc   Section        0  remotecontrol.o(i.Get_RC_Data)
    i.Get_UmpireData                         0x080036b8   Section        0  comm_umpire.o(i.Get_UmpireData)
    i.Gimbal_Ctrl                            0x080037a0   Section        0  shoot.o(i.Gimbal_Ctrl)
    i.Gimbal_Ctrl_init                       0x08003924   Section        0  shoot.o(i.Gimbal_Ctrl_init)
    i.HardFault_Handler                      0x08003938   Section        0  stm32f4xx_it.o(i.HardFault_Handler)
    i.IMUSO3Thread                           0x0800393c   Section        0  imu.o(i.IMUSO3Thread)
    i.IMU_Init                               0x08003dd4   Section        0  mpu6500.o(i.IMU_Init)
    i.IMU_Temp_Ctrl                          0x08003e30   Section        0  imu.o(i.IMU_Temp_Ctrl)
    i.Inverse_Kinematic_Ctrl                 0x08003e74   Section        0  ctrl_chassis.o(i.Inverse_Kinematic_Ctrl)
    i.KeyDataProcess                         0x08004020   Section        0  remotecontrol.o(i.KeyDataProcess)
    i.LED_Init                               0x0800413c   Section        0  led.o(i.LED_Init)
    i.LPF2pApply_1                           0x0800419c   Section        0  filter.o(i.LPF2pApply_1)
    i.LPF2pApply_2                           0x0800427c   Section        0  filter.o(i.LPF2pApply_2)
    i.LPF2pApply_3                           0x0800435c   Section        0  filter.o(i.LPF2pApply_3)
    i.LPF2pApply_4                           0x0800443c   Section        0  filter.o(i.LPF2pApply_4)
    i.LPF2pApply_5                           0x0800451c   Section        0  filter.o(i.LPF2pApply_5)
    i.LPF2pApply_6                           0x080045fc   Section        0  filter.o(i.LPF2pApply_6)
    i.LPF2pSetCutoffFreq_1                   0x080046dc   Section        0  filter.o(i.LPF2pSetCutoffFreq_1)
    i.LPF2pSetCutoffFreq_2                   0x080047ec   Section        0  filter.o(i.LPF2pSetCutoffFreq_2)
    i.LPF2pSetCutoffFreq_3                   0x080048fc   Section        0  filter.o(i.LPF2pSetCutoffFreq_3)
    i.LPF2pSetCutoffFreq_4                   0x08004a0c   Section        0  filter.o(i.LPF2pSetCutoffFreq_4)
    i.LPF2pSetCutoffFreq_5                   0x08004b1c   Section        0  filter.o(i.LPF2pSetCutoffFreq_5)
    i.LPF2pSetCutoffFreq_6                   0x08004c2c   Section        0  filter.o(i.LPF2pSetCutoffFreq_6)
    i.Laser_Init                             0x08004d3c   Section        0  led.o(i.Laser_Init)
    i.MPU6050AccRead                         0x08004d74   Section        0  mpu6500.o(i.MPU6050AccRead)
    i.MPU6050GyroRead                        0x08004dc0   Section        0  mpu6500.o(i.MPU6050GyroRead)
    i.MPU6500_Init                           0x08004e0c   Section        0  mpu6500.o(i.MPU6500_Init)
    i.MPU6500_Read_Reg                       0x08004e60   Section        0  mpu6500.o(i.MPU6500_Read_Reg)
    i.MPU6500_Write_Reg                      0x08004ea4   Section        0  mpu6500.o(i.MPU6500_Write_Reg)
    i.Matrix_Translate                       0x08004ee4   Section        0  higher_class.o(i.Matrix_Translate)
    i.MemManage_Handler                      0x08004f74   Section        0  stm32f4xx_it.o(i.MemManage_Handler)
    i.NMI_Handler                            0x08004f78   Section        0  stm32f4xx_it.o(i.NMI_Handler)
    i.NVIC_Init                              0x08004f7c   Section        0  misc.o(i.NVIC_Init)
    i.NVIC_PriorityGroupConfig               0x08004ff4   Section        0  misc.o(i.NVIC_PriorityGroupConfig)
    i.NonlinearSO3AHRSinit                   0x08005008   Section        0  imu.o(i.NonlinearSO3AHRSinit)
    NonlinearSO3AHRSinit                     0x08005009   Thumb Code   668  imu.o(i.NonlinearSO3AHRSinit)
    i.NonlinearSO3AHRSupdate                 0x080052dc   Section        0  imu.o(i.NonlinearSO3AHRSupdate)
    NonlinearSO3AHRSupdate                   0x080052dd   Thumb Code  1826  imu.o(i.NonlinearSO3AHRSupdate)
    i.PID_Control                            0x08005a4c   Section        0  pid.o(i.PID_Control)
    i.PWM_Write                              0x08005be8   Section        0  pwm.o(i.PWM_Write)
    i.PendSV_Handler                         0x08005c24   Section        0  stm32f4xx_it.o(i.PendSV_Handler)
    i.Pitch_pid                              0x08005c28   Section        0  shoot.o(i.Pitch_pid)
    Pitch_pid                                0x08005c29   Thumb Code    80  shoot.o(i.Pitch_pid)
    i.RCC_AHB1PeriphClockCmd                 0x08005c88   Section        0  stm32f4xx_rcc.o(i.RCC_AHB1PeriphClockCmd)
    i.RCC_APB1PeriphClockCmd                 0x08005ca8   Section        0  stm32f4xx_rcc.o(i.RCC_APB1PeriphClockCmd)
    i.RCC_APB1PeriphResetCmd                 0x08005cc8   Section        0  stm32f4xx_rcc.o(i.RCC_APB1PeriphResetCmd)
    i.RCC_APB2PeriphClockCmd                 0x08005ce8   Section        0  stm32f4xx_rcc.o(i.RCC_APB2PeriphClockCmd)
    i.RCC_APB2PeriphResetCmd                 0x08005d08   Section        0  stm32f4xx_rcc.o(i.RCC_APB2PeriphResetCmd)
    i.RCC_GetClocksFreq                      0x08005d28   Section        0  stm32f4xx_rcc.o(i.RCC_GetClocksFreq)
    i.RC_Init                                0x08005e10   Section        0  remotecontrol.o(i.RC_Init)
    i.ReadIMUSensorHandle                    0x08005f40   Section        0  mpu6500.o(i.ReadIMUSensorHandle)
    i.SPI5_Init                              0x080060b0   Section        0  spi.o(i.SPI5_Init)
    i.SPI5_ReadWriteByte                     0x08006190   Section        0  spi.o(i.SPI5_ReadWriteByte)
    i.SPI_Cmd                                0x080061e8   Section        0  stm32f4xx_spi.o(i.SPI_Cmd)
    i.SPI_I2S_GetFlagStatus                  0x08006200   Section        0  stm32f4xx_spi.o(i.SPI_I2S_GetFlagStatus)
    i.SPI_I2S_ReceiveData                    0x08006212   Section        0  stm32f4xx_spi.o(i.SPI_I2S_ReceiveData)
    i.SPI_I2S_SendData                       0x08006218   Section        0  stm32f4xx_spi.o(i.SPI_I2S_SendData)
    i.SPI_Init                               0x0800621c   Section        0  stm32f4xx_spi.o(i.SPI_Init)
    i.SVC_Handler                            0x08006258   Section        0  stm32f4xx_it.o(i.SVC_Handler)
    i.SetSysClock                            0x0800625c   Section        0  system_stm32f4xx.o(i.SetSysClock)
    SetSysClock                              0x0800625d   Thumb Code   272  system_stm32f4xx.o(i.SetSysClock)
    i.Shoot_Ctrl                             0x0800637c   Section        0  user_api.o(i.Shoot_Ctrl)
    i.Stop_Chassis_Task                      0x080064ec   Section        0  user_api.o(i.Stop_Chassis_Task)
    i.SysTick_Handler                        0x08006560   Section        0  stm32f4xx_it.o(i.SysTick_Handler)
    i.SystemInit                             0x08006570   Section        0  system_stm32f4xx.o(i.SystemInit)
    i.TIM3_PWM_Init                          0x080065d8   Section        0  pwm.o(i.TIM3_PWM_Init)
    i.TIM4_IRQHandler                        0x0800669c   Section        0  timer.o(i.TIM4_IRQHandler)
    i.TIM4_Int_Init                          0x0800679c   Section        0  timer.o(i.TIM4_Int_Init)
    i.TIM_ARRPreloadConfig                   0x08006800   Section        0  stm32f4xx_tim.o(i.TIM_ARRPreloadConfig)
    i.TIM_ClearITPendingBit                  0x08006818   Section        0  stm32f4xx_tim.o(i.TIM_ClearITPendingBit)
    i.TIM_Cmd                                0x0800681e   Section        0  stm32f4xx_tim.o(i.TIM_Cmd)
    i.TIM_CtrlPWMOutputs                     0x08006836   Section        0  stm32f4xx_tim.o(i.TIM_CtrlPWMOutputs)
    i.TIM_DeInit                             0x08006854   Section        0  stm32f4xx_tim.o(i.TIM_DeInit)
    i.TIM_GetITStatus                        0x080069e4   Section        0  stm32f4xx_tim.o(i.TIM_GetITStatus)
    i.TIM_ITConfig                           0x08006a06   Section        0  stm32f4xx_tim.o(i.TIM_ITConfig)
    i.TIM_OC1Init                            0x08006a18   Section        0  stm32f4xx_tim.o(i.TIM_OC1Init)
    i.TIM_OC1PreloadConfig                   0x08006a94   Section        0  stm32f4xx_tim.o(i.TIM_OC1PreloadConfig)
    i.TIM_OC2Init                            0x08006aa8   Section        0  stm32f4xx_tim.o(i.TIM_OC2Init)
    i.TIM_OC2PreloadConfig                   0x08006b4c   Section        0  stm32f4xx_tim.o(i.TIM_OC2PreloadConfig)
    i.TIM_OC4Init                            0x08006b68   Section        0  stm32f4xx_tim.o(i.TIM_OC4Init)
    i.TIM_OC4PreloadConfig                   0x08006be0   Section        0  stm32f4xx_tim.o(i.TIM_OC4PreloadConfig)
    i.TIM_TimeBaseInit                       0x08006bfc   Section        0  stm32f4xx_tim.o(i.TIM_TimeBaseInit)
    i.Total_PID_Init                         0x08006c80   Section        0  pid.o(i.Total_PID_Init)
    i.Twist                                  0x08006eb4   Section        0  shoot.o(i.Twist)
    i.USART3_IRQHandler                      0x08006f98   Section        0  usart.o(i.USART3_IRQHandler)
    i.USART6_IRQHandler                      0x08007020   Section        0  comm_umpire.o(i.USART6_IRQHandler)
    i.USART_Cmd                              0x0800708c   Section        0  stm32f4xx_usart.o(i.USART_Cmd)
    i.USART_DMACmd                           0x080070a4   Section        0  stm32f4xx_usart.o(i.USART_DMACmd)
    i.USART_DeInit                           0x080070b8   Section        0  stm32f4xx_usart.o(i.USART_DeInit)
    i.USART_GetITStatus                      0x080071a8   Section        0  stm32f4xx_usart.o(i.USART_GetITStatus)
    i.USART_ITConfig                         0x080071fc   Section        0  stm32f4xx_usart.o(i.USART_ITConfig)
    i.USART_Init                             0x08007248   Section        0  stm32f4xx_usart.o(i.USART_Init)
    i.USART_ReceiveData                      0x0800731c   Section        0  stm32f4xx_usart.o(i.USART_ReceiveData)
    i.UsageFault_Handler                     0x08007326   Section        0  stm32f4xx_it.o(i.UsageFault_Handler)
    i.Verify_CRC16_Check_Sum                 0x0800732c   Section        0  crc.o(i.Verify_CRC16_Check_Sum)
    i.Verify_CRC8_Check_Sum                  0x08007364   Section        0  crc.o(i.Verify_CRC8_Check_Sum)
    i.Yaw_angle_pid                          0x08007394   Section        0  shoot.o(i.Yaw_angle_pid)
    i.__ARM_fpclassify                       0x08007594   Section        0  fpclassify.o(i.__ARM_fpclassify)
    i.__ARM_fpclassifyf                      0x080075c4   Section        0  fpclassifyf.o(i.__ARM_fpclassifyf)
    i.__ARM_isinff                           0x080075ea   Section        0  filter.o(i.__ARM_isinff)
    __ARM_isinff                             0x080075eb   Thumb Code    20  filter.o(i.__ARM_isinff)
    i.__ARM_isnanf                           0x080075fe   Section        0  filter.o(i.__ARM_isnanf)
    __ARM_isnanf                             0x080075ff   Thumb Code    14  filter.o(i.__ARM_isnanf)
    i.__hardfp_asinf                         0x0800760c   Section        0  asinf.o(i.__hardfp_asinf)
    i.__hardfp_atan                          0x08007738   Section        0  atan.o(i.__hardfp_atan)
    i.__hardfp_atan2                         0x08007a10   Section        0  atan2.o(i.__hardfp_atan2)
    i.__hardfp_atan2f                        0x08007c10   Section        0  atan2f.o(i.__hardfp_atan2f)
    i.__hardfp_cosf                          0x08007ebc   Section        0  cosf.o(i.__hardfp_cosf)
    i.__hardfp_fabs                          0x0800800c   Section        0  fabs.o(i.__hardfp_fabs)
    i.__hardfp_sinf                          0x08008020   Section        0  sinf.o(i.__hardfp_sinf)
    i.__hardfp_sqrt                          0x080081b0   Section        0  sqrt.o(i.__hardfp_sqrt)
    i.__hardfp_tanf                          0x0800822c   Section        0  tanf.o(i.__hardfp_tanf)
    i.__kernel_poly                          0x080083a8   Section        0  poly.o(i.__kernel_poly)
    i.__mathlib_dbl_infnan                   0x080084a0   Section        0  dunder.o(i.__mathlib_dbl_infnan)
    i.__mathlib_dbl_infnan2                  0x080084b4   Section        0  dunder.o(i.__mathlib_dbl_infnan2)
    i.__mathlib_dbl_underflow                0x080084c8   Section        0  dunder.o(i.__mathlib_dbl_underflow)
    i.__mathlib_flt_infnan                   0x080084e8   Section        0  funder.o(i.__mathlib_flt_infnan)
    i.__mathlib_flt_infnan2                  0x080084ee   Section        0  funder.o(i.__mathlib_flt_infnan2)
    i.__mathlib_flt_invalid                  0x080084f4   Section        0  funder.o(i.__mathlib_flt_invalid)
    i.__mathlib_flt_underflow                0x08008504   Section        0  funder.o(i.__mathlib_flt_underflow)
    i.__mathlib_rredf2                       0x08008514   Section        0  rredf.o(i.__mathlib_rredf2)
    i._sys_exit                              0x08008668   Section        0  usart.o(i._sys_exit)
    i.atan                                   0x0800866c   Section        0  atan.o(i.atan)
    i.cycleCounterInit                       0x0800867c   Section        0  stm32f4xx_it.o(i.cycleCounterInit)
    i.delay_ms                               0x0800869c   Section        0  delay.o(i.delay_ms)
    i.digital_init                           0x080086c0   Section        0  digital.o(i.digital_init)
    i.encoders_err                           0x08008704   Section        0  ctrl_chassis.o(i.encoders_err)
    i.encoders_err_shoot                     0x08008760   Section        0  shoot.o(i.encoders_err_shoot)
    i.fabs                                   0x080087b0   Section        0  fabs.o(i.fabs)
    i.fputc                                  0x080087c8   Section        0  usart.o(i.fputc)
    i.fric1_on                               0x080087e4   Section        0  fric.o(i.fric1_on)
    i.fric2_on                               0x080087f2   Section        0  fric.o(i.fric2_on)
    i.fric_PWM_configuration                 0x08008800   Section        0  fric.o(i.fric_PWM_configuration)
    i.fric_off                               0x08008944   Section        0  fric.o(i.fric_off)
    i.invSqrt                                0x0800895c   Section        0  imu.o(i.invSqrt)
    invSqrt                                  0x0800895d   Thumb Code   102  imu.o(i.invSqrt)
    i.kalman                                 0x080089c8   Section        0  can1.o(i.kalman)
    i.laser_off                              0x08008a68   Section        0  led.o(i.laser_off)
    i.laser_on                               0x08008a7c   Section        0  led.o(i.laser_on)
    i.main                                   0x08008a90   Section        0  main.o(i.main)
    i.micros                                 0x08008dbc   Section        0  stm32f4xx_it.o(i.micros)
    i.motor_angle_ctrl                       0x08008e00   Section        0  ctrl_chassis.o(i.motor_angle_ctrl)
    i.motor_angle_pid                        0x08009010   Section        0  shoot.o(i.motor_angle_pid)
    i.power_ctrl_configuration               0x08009254   Section        0  power_ctrl.o(i.power_ctrl_configuration)
    i.power_ctrl_off                         0x0800929c   Section        0  power_ctrl.o(i.power_ctrl_off)
    i.shoot_control_loop                     0x080092bc   Section        0  shoot.o(i.shoot_control_loop)
    i.sqrtf                                  0x080092d2   Section        0  sqrtf.o(i.sqrtf)
    i.usart_init                             0x08009310   Section        0  usart.o(i.usart_init)
    i.virtual_encoders                       0x080093bc   Section        0  ctrl_chassis.o(i.virtual_encoders)
    i.virtual_encoders_shoot                 0x08009420   Section        0  shoot.o(i.virtual_encoders_shoot)
    locale$$code                             0x08009464   Section       44  lc_numeric_c.o(locale$$code)
    x$fpl$basic                              0x08009490   Section       24  basic.o(x$fpl$basic)
    $v0                                      0x08009490   Number         0  basic.o(x$fpl$basic)
    x$fpl$d2f                                0x080094a8   Section       98  d2f.o(x$fpl$d2f)
    $v0                                      0x080094a8   Number         0  d2f.o(x$fpl$d2f)
    x$fpl$dadd                               0x0800950c   Section      336  daddsub_clz.o(x$fpl$dadd)
    $v0                                      0x0800950c   Number         0  daddsub_clz.o(x$fpl$dadd)
    _dadd1                                   0x0800951d   Thumb Code     0  daddsub_clz.o(x$fpl$dadd)
    x$fpl$dcmpinf                            0x0800965c   Section       24  dcmpi.o(x$fpl$dcmpinf)
    $v0                                      0x0800965c   Number         0  dcmpi.o(x$fpl$dcmpinf)
    x$fpl$ddiv                               0x08009674   Section      688  ddiv.o(x$fpl$ddiv)
    $v0                                      0x08009674   Number         0  ddiv.o(x$fpl$ddiv)
    ddiv_entry                               0x0800967b   Thumb Code     0  ddiv.o(x$fpl$ddiv)
    x$fpl$deqf                               0x08009924   Section      120  deqf.o(x$fpl$deqf)
    $v0                                      0x08009924   Number         0  deqf.o(x$fpl$deqf)
    x$fpl$dfix                               0x0800999c   Section       94  dfix.o(x$fpl$dfix)
    $v0                                      0x0800999c   Number         0  dfix.o(x$fpl$dfix)
    x$fpl$dflt                               0x080099fa   Section       46  dflt_clz.o(x$fpl$dflt)
    $v0                                      0x080099fa   Number         0  dflt_clz.o(x$fpl$dflt)
    x$fpl$dleqf                              0x08009a28   Section      120  dleqf.o(x$fpl$dleqf)
    $v0                                      0x08009a28   Number         0  dleqf.o(x$fpl$dleqf)
    x$fpl$dmul                               0x08009aa0   Section      340  dmul.o(x$fpl$dmul)
    $v0                                      0x08009aa0   Number         0  dmul.o(x$fpl$dmul)
    x$fpl$dnaninf                            0x08009bf4   Section      156  dnaninf.o(x$fpl$dnaninf)
    $v0                                      0x08009bf4   Number         0  dnaninf.o(x$fpl$dnaninf)
    x$fpl$dretinf                            0x08009c90   Section       12  dretinf.o(x$fpl$dretinf)
    $v0                                      0x08009c90   Number         0  dretinf.o(x$fpl$dretinf)
    x$fpl$drsb                               0x08009c9c   Section       22  daddsub_clz.o(x$fpl$drsb)
    $v0                                      0x08009c9c   Number         0  daddsub_clz.o(x$fpl$drsb)
    x$fpl$dsqrt                              0x08009cb4   Section      408  dsqrt_umaal.o(x$fpl$dsqrt)
    $v0                                      0x08009cb4   Number         0  dsqrt_umaal.o(x$fpl$dsqrt)
    x$fpl$dsub                               0x08009e4c   Section      468  daddsub_clz.o(x$fpl$dsub)
    $v0                                      0x08009e4c   Number         0  daddsub_clz.o(x$fpl$dsub)
    _dsub1                                   0x08009e5d   Thumb Code     0  daddsub_clz.o(x$fpl$dsub)
    x$fpl$f2d                                0x0800a020   Section       86  f2d.o(x$fpl$f2d)
    $v0                                      0x0800a020   Number         0  f2d.o(x$fpl$f2d)
    x$fpl$fnaninf                            0x0800a076   Section      140  fnaninf.o(x$fpl$fnaninf)
    $v0                                      0x0800a076   Number         0  fnaninf.o(x$fpl$fnaninf)
    x$fpl$fpinit                             0x0800a102   Section       10  fpinit.o(x$fpl$fpinit)
    $v0                                      0x0800a102   Number         0  fpinit.o(x$fpl$fpinit)
    x$fpl$fretinf                            0x0800a10c   Section       10  fretinf.o(x$fpl$fretinf)
    $v0                                      0x0800a10c   Number         0  fretinf.o(x$fpl$fretinf)
    x$fpl$printf1                            0x0800a116   Section        4  printf1.o(x$fpl$printf1)
    $v0                                      0x0800a116   Number         0  printf1.o(x$fpl$printf1)
    x$fpl$usenofp                            0x0800a11a   Section        0  usenofp.o(x$fpl$usenofp)
    .constdata                               0x0800a11c   Section       20  mpu6500.o(.constdata)
    .constdata                               0x0800a130   Section      770  crc.o(.constdata)
    .constdata                               0x0800a434   Section       36  imu.o(.constdata)
    .constdata                               0x0800a458   Section      152  atan.o(.constdata)
    atanhi                                   0x0800a458   Data          32  atan.o(.constdata)
    atanlo                                   0x0800a478   Data          32  atan.o(.constdata)
    aTodd                                    0x0800a498   Data          40  atan.o(.constdata)
    aTeven                                   0x0800a4c0   Data          48  atan.o(.constdata)
    .constdata                               0x0800a4f0   Section        8  qnan.o(.constdata)
    .constdata                               0x0800a4f8   Section       32  rredf.o(.constdata)
    twooverpi                                0x0800a4f8   Data          32  rredf.o(.constdata)
    .constdata                               0x0800a518   Section      148  bigflt0.o(.constdata)
    tenpwrs_x                                0x0800a518   Data          60  bigflt0.o(.constdata)
    tenpwrs_i                                0x0800a554   Data          64  bigflt0.o(.constdata)
    locale$$data                             0x0800a5cc   Section       28  lc_numeric_c.o(locale$$data)
    __lcnum_c_name                           0x0800a5d0   Data           2  lc_numeric_c.o(locale$$data)
    __lcnum_c_start                          0x0800a5d8   Data           0  lc_numeric_c.o(locale$$data)
    __lcnum_c_point                          0x0800a5e4   Data           0  lc_numeric_c.o(locale$$data)
    __lcnum_c_thousands                      0x0800a5e6   Data           0  lc_numeric_c.o(locale$$data)
    __lcnum_c_grouping                       0x0800a5e7   Data           0  lc_numeric_c.o(locale$$data)
    __lcnum_c_end                            0x0800a5e8   Data           0  lc_numeric_c.o(locale$$data)
    .data                                    0x20000000   Section       20  system_stm32f4xx.o(.data)
    .data                                    0x20000014   Section       16  stm32f4xx_rcc.o(.data)
    APBAHBPrescTable                         0x20000014   Data          16  stm32f4xx_rcc.o(.data)
    .data                                    0x20000024   Section        6  usart.o(.data)
    .data                                    0x2000002c   Section       56  can1.o(.data)
    .data                                    0x20000064   Section        6  mpu6500.o(.data)
    MPU_Tx                                   0x20000065   Data           1  mpu6500.o(.data)
    MPU_Rx                                   0x20000066   Data           1  mpu6500.o(.data)
    MPU_Tx                                   0x20000067   Data           1  mpu6500.o(.data)
    MPU_Rx                                   0x20000068   Data           1  mpu6500.o(.data)
    MPU_Tx                                   0x20000069   Data           1  mpu6500.o(.data)
    .data                                    0x2000006a   Section        1  remotecontrol.o(.data)
    .data                                    0x2000006b   Section       22  comm_umpire.o(.data)
    Pointer                                  0x2000006b   Data           1  comm_umpire.o(.data)
    .data                                    0x20000081   Section        8  can2.o(.data)
    .data                                    0x20000089   Section       12  timer.o(.data)
    .data                                    0x20000096   Section        2  crc.o(.data)
    .data                                    0x20000098   Section        8  ctrl_chassis.o(.data)
    .data                                    0x200000a0   Section      192  filter.o(.data)
    _cutoff_freq1                            0x200000a0   Data           4  filter.o(.data)
    _a11                                     0x200000a4   Data           4  filter.o(.data)
    _a21                                     0x200000a8   Data           4  filter.o(.data)
    _b01                                     0x200000ac   Data           4  filter.o(.data)
    _b11                                     0x200000b0   Data           4  filter.o(.data)
    _b21                                     0x200000b4   Data           4  filter.o(.data)
    _delay_element_11                        0x200000b8   Data           4  filter.o(.data)
    _delay_element_21                        0x200000bc   Data           4  filter.o(.data)
    _cutoff_freq2                            0x200000c0   Data           4  filter.o(.data)
    _a12                                     0x200000c4   Data           4  filter.o(.data)
    _a22                                     0x200000c8   Data           4  filter.o(.data)
    _b02                                     0x200000cc   Data           4  filter.o(.data)
    _b12                                     0x200000d0   Data           4  filter.o(.data)
    _b22                                     0x200000d4   Data           4  filter.o(.data)
    _delay_element_12                        0x200000d8   Data           4  filter.o(.data)
    _delay_element_22                        0x200000dc   Data           4  filter.o(.data)
    _cutoff_freq3                            0x200000e0   Data           4  filter.o(.data)
    _a13                                     0x200000e4   Data           4  filter.o(.data)
    _a23                                     0x200000e8   Data           4  filter.o(.data)
    _b03                                     0x200000ec   Data           4  filter.o(.data)
    _b13                                     0x200000f0   Data           4  filter.o(.data)
    _b23                                     0x200000f4   Data           4  filter.o(.data)
    _delay_element_13                        0x200000f8   Data           4  filter.o(.data)
    _delay_element_23                        0x200000fc   Data           4  filter.o(.data)
    _cutoff_freq4                            0x20000100   Data           4  filter.o(.data)
    _a14                                     0x20000104   Data           4  filter.o(.data)
    _a24                                     0x20000108   Data           4  filter.o(.data)
    _b04                                     0x2000010c   Data           4  filter.o(.data)
    _b14                                     0x20000110   Data           4  filter.o(.data)
    _b24                                     0x20000114   Data           4  filter.o(.data)
    _delay_element_14                        0x20000118   Data           4  filter.o(.data)
    _delay_element_24                        0x2000011c   Data           4  filter.o(.data)
    _cutoff_freq5                            0x20000120   Data           4  filter.o(.data)
    _a15                                     0x20000124   Data           4  filter.o(.data)
    _a25                                     0x20000128   Data           4  filter.o(.data)
    _b05                                     0x2000012c   Data           4  filter.o(.data)
    _b15                                     0x20000130   Data           4  filter.o(.data)
    _b25                                     0x20000134   Data           4  filter.o(.data)
    _delay_element_15                        0x20000138   Data           4  filter.o(.data)
    _delay_element_25                        0x2000013c   Data           4  filter.o(.data)
    _cutoff_freq6                            0x20000140   Data           4  filter.o(.data)
    _a16                                     0x20000144   Data           4  filter.o(.data)
    _a26                                     0x20000148   Data           4  filter.o(.data)
    _b06                                     0x2000014c   Data           4  filter.o(.data)
    _b16                                     0x20000150   Data           4  filter.o(.data)
    _b26                                     0x20000154   Data           4  filter.o(.data)
    _delay_element_16                        0x20000158   Data           4  filter.o(.data)
    _delay_element_26                        0x2000015c   Data           4  filter.o(.data)
    .data                                    0x20000160   Section       24  higher_class.o(.data)
    Acc_x                                    0x2000016c   Data           4  higher_class.o(.data)
    Acc_y                                    0x20000170   Data           4  higher_class.o(.data)
    Acc_z                                    0x20000174   Data           4  higher_class.o(.data)
    .data                                    0x20000178   Section       86  imu.o(.data)
    q0                                       0x20000178   Data           4  imu.o(.data)
    q1                                       0x2000017c   Data           4  imu.o(.data)
    q2                                       0x20000180   Data           4  imu.o(.data)
    q3                                       0x20000184   Data           4  imu.o(.data)
    dq0                                      0x20000188   Data           4  imu.o(.data)
    dq1                                      0x2000018c   Data           4  imu.o(.data)
    dq2                                      0x20000190   Data           4  imu.o(.data)
    dq3                                      0x20000194   Data           4  imu.o(.data)
    q0q0                                     0x20000198   Data           4  imu.o(.data)
    q0q1                                     0x2000019c   Data           4  imu.o(.data)
    q0q2                                     0x200001a0   Data           4  imu.o(.data)
    q0q3                                     0x200001a4   Data           4  imu.o(.data)
    q1q1                                     0x200001a8   Data           4  imu.o(.data)
    q1q2                                     0x200001ac   Data           4  imu.o(.data)
    q1q3                                     0x200001b0   Data           4  imu.o(.data)
    q2q2                                     0x200001b4   Data           4  imu.o(.data)
    q2q3                                     0x200001b8   Data           4  imu.o(.data)
    q3q3                                     0x200001bc   Data           4  imu.o(.data)
    tPrev                                    0x200001c4   Data           4  imu.o(.data)
    startTime                                0x200001c8   Data           4  imu.o(.data)
    offset_count                             0x200001cc   Data           2  imu.o(.data)
    .data                                    0x200001d0   Section       90  user_api.o(.data)
    .data                                    0x2000022c   Section       76  shoot.o(.data)
    T_yaw                                    0x2000024c   Data           4  shoot.o(.data)
    Yaw_AnglePid_i                           0x20000250   Data           4  shoot.o(.data)
    angle_output                             0x20000254   Data           4  shoot.o(.data)
    angle_i                                  0x2000025c   Data           4  shoot.o(.data)
    speed_i                                  0x20000260   Data           4  shoot.o(.data)
    last_speed                               0x20000264   Data           2  shoot.o(.data)
    old_target                               0x20000268   Data           4  shoot.o(.data)
    shoot_cnt                                0x2000026c   Data           2  shoot.o(.data)
    Twist_buff                               0x20000274   Data           4  shoot.o(.data)
    .data                                    0x20000278   Section        8  main.o(.data)
    .data                                    0x20000280   Section        8  stm32f4xx_it.o(.data)
    usTicks                                  0x20000280   Data           4  stm32f4xx_it.o(.data)
    .bss                                     0x20000288   Section      200  usart.o(.bss)
    .bss                                     0x20000350   Section      140  can1.o(.bss)
    .bss                                     0x200003dc   Section      196  mpu6500.o(.bss)
    .bss                                     0x200004a0   Section       61  remotecontrol.o(.bss)
    .bss                                     0x200004dd   Section      236  comm_umpire.o(.bss)
    .bss                                     0x200005cc   Section       12  can2.o(.bss)
    .bss                                     0x200005d8   Section       48  ctrl_chassis.o(.bss)
    angle_pid                                0x200005d8   Data          48  ctrl_chassis.o(.bss)
    .bss                                     0x20000608   Section       24  imu.o(.bss)
    gyro_bias                                0x20000608   Data          12  imu.o(.bss)
    gyro_offsets_sum                         0x20000614   Data          12  imu.o(.bss)
    .bss                                     0x20000620   Section       36  user_api.o(.bss)
    .bss                                     0x20000644   Section      928  pid.o(.bss)
    .bss                                     0x200009e4   Section       96  libspace.o(.bss)
    HEAP                                     0x20000a48   Section     4096  startup_stm32f427xx.o(HEAP)
    Heap_Mem                                 0x20000a48   Data        4096  startup_stm32f427xx.o(HEAP)
    STACK                                    0x20001a48   Section     1024  startup_stm32f427xx.o(STACK)
    Stack_Mem                                0x20001a48   Data        1024  startup_stm32f427xx.o(STACK)
    __initial_sp                             0x20001e48   Data           0  startup_stm32f427xx.o(STACK)

    Global Symbols

    Symbol Name                              Value     Ov Type        Size  Object(Section)

    BuildAttributes$$THM_ISAv4$E$P$D$K$B$S$7EM$VFPi3$EXTD16$VFPS$VFMA$PE$A:L22UL41UL21$X:L11$S22US41US21$IEEE1$IW$USESV6$~STKCKD$USESV7$~SHL$OTIME$ROPI$IEEEX$EBA8$UX$STANDARDLIB$REQ8$PRES8$EABIv2 0x00000000   Number         0  anon$$obj.o ABSOLUTE
    __ARM_use_no_argv                        0x00000000   Number         0  main.o ABSOLUTE
    __ARM_exceptions_init                     - Undefined Weak Reference
    __alloca_initialize                       - Undefined Weak Reference
    __arm_fini_                               - Undefined Weak Reference
    __arm_preinit_                            - Undefined Weak Reference
    __cpp_initialize__aeabi_                  - Undefined Weak Reference
    __cxa_finalize                            - Undefined Weak Reference
    __sigvec_lookup                           - Undefined Weak Reference
    _atexit_init                              - Undefined Weak Reference
    _call_atexit_fns                          - Undefined Weak Reference
    _clock_init                               - Undefined Weak Reference
    _fp_trap_init                             - Undefined Weak Reference
    _fp_trap_shutdown                         - Undefined Weak Reference
    _get_lc_collate                           - Undefined Weak Reference
    _get_lc_ctype                             - Undefined Weak Reference
    _get_lc_monetary                          - Undefined Weak Reference
    _get_lc_time                              - Undefined Weak Reference
    _getenv_init                              - Undefined Weak Reference
    _handle_redirection                       - Undefined Weak Reference
    _init_alloc                               - Undefined Weak Reference
    _init_user_alloc                          - Undefined Weak Reference
    _initio                                   - Undefined Weak Reference
    _mutex_acquire                            - Undefined Weak Reference
    _mutex_release                            - Undefined Weak Reference
    _printf_post_padding                      - Undefined Weak Reference
    _printf_pre_padding                       - Undefined Weak Reference
    _rand_init                                - Undefined Weak Reference
    _signal_finish                            - Undefined Weak Reference
    _signal_init                              - Undefined Weak Reference
    _terminate_alloc                          - Undefined Weak Reference
    _terminate_user_alloc                     - Undefined Weak Reference
    _terminateio                              - Undefined Weak Reference
    __Vectors_Size                           0x000001ac   Number         0  startup_stm32f427xx.o ABSOLUTE
    __Vectors                                0x08000000   Data           4  startup_stm32f427xx.o(RESET)
    __Vectors_End                            0x080001ac   Data           0  startup_stm32f427xx.o(RESET)
    __main                                   0x080001ad   Thumb Code     8  __main.o(!!!main)
    __scatterload                            0x080001b5   Thumb Code     0  __scatter.o(!!!scatter)
    __scatterload_rt2                        0x080001b5   Thumb Code    44  __scatter.o(!!!scatter)
    __scatterload_rt2_thumb_only             0x080001b5   Thumb Code     0  __scatter.o(!!!scatter)
    __scatterload_null                       0x080001c3   Thumb Code     0  __scatter.o(!!!scatter)
    __decompress                             0x080001e9   Thumb Code    90  __dczerorl2.o(!!dczerorl2)
    __decompress1                            0x080001e9   Thumb Code     0  __dczerorl2.o(!!dczerorl2)
    __scatterload_zeroinit                   0x08000245   Thumb Code    28  __scatter_zi.o(!!handler_zi)
    _printf_f                                0x08000261   Thumb Code     0  _printf_f.o(.ARM.Collect$$_printf_percent$$00000003)
    _printf_percent                          0x08000261   Thumb Code     0  _printf_percent.o(.ARM.Collect$$_printf_percent$$00000000)
    _printf_percent_end                      0x08000267   Thumb Code     0  _printf_percent_end.o(.ARM.Collect$$_printf_percent$$00000017)
    __rt_lib_init                            0x0800026b   Thumb Code     0  libinit.o(.ARM.Collect$$libinit$$00000000)
    __rt_lib_init_fp_1                       0x0800026d   Thumb Code     0  libinit2.o(.ARM.Collect$$libinit$$00000001)
    __rt_lib_init_heap_1                     0x08000271   Thumb Code     0  libinit2.o(.ARM.Collect$$libinit$$0000000A)
    __rt_lib_init_lc_common                  0x08000271   Thumb Code     0  libinit2.o(.ARM.Collect$$libinit$$0000000F)
    __rt_lib_init_preinit_1                  0x08000271   Thumb Code     0  libinit2.o(.ARM.Collect$$libinit$$00000004)
    __rt_lib_init_rand_1                     0x08000271   Thumb Code     0  libinit2.o(.ARM.Collect$$libinit$$0000000E)
    __rt_lib_init_user_alloc_1               0x08000271   Thumb Code     0  libinit2.o(.ARM.Collect$$libinit$$0000000C)
    __rt_lib_init_lc_collate_1               0x08000277   Thumb Code     0  libinit2.o(.ARM.Collect$$libinit$$00000011)
    __rt_lib_init_lc_ctype_1                 0x08000277   Thumb Code     0  libinit2.o(.ARM.Collect$$libinit$$00000013)
    __rt_lib_init_lc_monetary_1              0x08000277   Thumb Code     0  libinit2.o(.ARM.Collect$$libinit$$00000015)
    __rt_lib_init_lc_numeric_2               0x08000277   Thumb Code     0  libinit2.o(.ARM.Collect$$libinit$$00000016)
    __rt_lib_init_alloca_1                   0x08000281   Thumb Code     0  libinit2.o(.ARM.Collect$$libinit$$0000002E)
    __rt_lib_init_argv_1                     0x08000281   Thumb Code     0  libinit2.o(.ARM.Collect$$libinit$$0000002C)
    __rt_lib_init_atexit_1                   0x08000281   Thumb Code     0  libinit2.o(.ARM.Collect$$libinit$$0000001B)
    __rt_lib_init_clock_1                    0x08000281   Thumb Code     0  libinit2.o(.ARM.Collect$$libinit$$00000021)
    __rt_lib_init_cpp_1                      0x08000281   Thumb Code     0  libinit2.o(.ARM.Collect$$libinit$$00000032)
    __rt_lib_init_exceptions_1               0x08000281   Thumb Code     0  libinit2.o(.ARM.Collect$$libinit$$00000030)
    __rt_lib_init_fp_trap_1                  0x08000281   Thumb Code     0  libinit2.o(.ARM.Collect$$libinit$$0000001F)
    __rt_lib_init_getenv_1                   0x08000281   Thumb Code     0  libinit2.o(.ARM.Collect$$libinit$$00000023)
    __rt_lib_init_lc_numeric_1               0x08000281   Thumb Code     0  libinit2.o(.ARM.Collect$$libinit$$00000017)
    __rt_lib_init_lc_time_1                  0x08000281   Thumb Code     0  libinit2.o(.ARM.Collect$$libinit$$00000019)
    __rt_lib_init_return                     0x08000281   Thumb Code     0  libinit2.o(.ARM.Collect$$libinit$$00000033)
    __rt_lib_init_signal_1                   0x08000281   Thumb Code     0  libinit2.o(.ARM.Collect$$libinit$$0000001D)
    __rt_lib_init_stdio_1                    0x08000281   Thumb Code     0  libinit2.o(.ARM.Collect$$libinit$$00000025)
    __rt_lib_shutdown                        0x08000283   Thumb Code     0  libshutdown.o(.ARM.Collect$$libshutdown$$00000000)
    __rt_lib_shutdown_cpp_1                  0x08000285   Thumb Code     0  libshutdown2.o(.ARM.Collect$$libshutdown$$00000004)
    __rt_lib_shutdown_fini_1                 0x08000285   Thumb Code     0  libshutdown2.o(.ARM.Collect$$libshutdown$$00000002)
    __rt_lib_shutdown_fp_trap_1              0x08000285   Thumb Code     0  libshutdown2.o(.ARM.Collect$$libshutdown$$00000009)
    __rt_lib_shutdown_heap_1                 0x08000285   Thumb Code     0  libshutdown2.o(.ARM.Collect$$libshutdown$$00000011)
    __rt_lib_shutdown_return                 0x08000285   Thumb Code     0  libshutdown2.o(.ARM.Collect$$libshutdown$$00000012)
    __rt_lib_shutdown_signal_1               0x08000285   Thumb Code     0  libshutdown2.o(.ARM.Collect$$libshutdown$$0000000C)
    __rt_lib_shutdown_stdio_1                0x08000285   Thumb Code     0  libshutdown2.o(.ARM.Collect$$libshutdown$$00000006)
    __rt_lib_shutdown_user_alloc_1           0x08000285   Thumb Code     0  libshutdown2.o(.ARM.Collect$$libshutdown$$0000000E)
    __rt_entry                               0x08000287   Thumb Code     0  __rtentry.o(.ARM.Collect$$rtentry$$00000000)
    __rt_entry_presh_1                       0x08000287   Thumb Code     0  __rtentry2.o(.ARM.Collect$$rtentry$$00000002)
    __rt_entry_sh                            0x08000287   Thumb Code     0  __rtentry4.o(.ARM.Collect$$rtentry$$00000004)
    __rt_entry_li                            0x0800028d   Thumb Code     0  __rtentry2.o(.ARM.Collect$$rtentry$$0000000A)
    __rt_entry_postsh_1                      0x0800028d   Thumb Code     0  __rtentry2.o(.ARM.Collect$$rtentry$$00000009)
    __rt_entry_main                          0x08000291   Thumb Code     0  __rtentry2.o(.ARM.Collect$$rtentry$$0000000D)
    __rt_entry_postli_1                      0x08000291   Thumb Code     0  __rtentry2.o(.ARM.Collect$$rtentry$$0000000C)
    __rt_exit                                0x08000299   Thumb Code     0  rtexit.o(.ARM.Collect$$rtexit$$00000000)
    __rt_exit_ls                             0x0800029b   Thumb Code     0  rtexit2.o(.ARM.Collect$$rtexit$$00000003)
    __rt_exit_prels_1                        0x0800029b   Thumb Code     0  rtexit2.o(.ARM.Collect$$rtexit$$00000002)
    __rt_exit_exit                           0x0800029f   Thumb Code     0  rtexit2.o(.ARM.Collect$$rtexit$$00000004)
    Reset_Handler                            0x080002a5   Thumb Code     8  startup_stm32f427xx.o(.text)
    ADC_IRQHandler                           0x080002bf   Thumb Code     0  startup_stm32f427xx.o(.text)
    CAN1_RX1_IRQHandler                      0x080002bf   Thumb Code     0  startup_stm32f427xx.o(.text)
    CAN1_SCE_IRQHandler                      0x080002bf   Thumb Code     0  startup_stm32f427xx.o(.text)
    CAN1_TX_IRQHandler                       0x080002bf   Thumb Code     0  startup_stm32f427xx.o(.text)
    CAN2_RX1_IRQHandler                      0x080002bf   Thumb Code     0  startup_stm32f427xx.o(.text)
    CAN2_SCE_IRQHandler                      0x080002bf   Thumb Code     0  startup_stm32f427xx.o(.text)
    CAN2_TX_IRQHandler                       0x080002bf   Thumb Code     0  startup_stm32f427xx.o(.text)
    DCMI_IRQHandler                          0x080002bf   Thumb Code     0  startup_stm32f427xx.o(.text)
    DMA1_Stream0_IRQHandler                  0x080002bf   Thumb Code     0  startup_stm32f427xx.o(.text)
    DMA1_Stream1_IRQHandler                  0x080002bf   Thumb Code     0  startup_stm32f427xx.o(.text)
    DMA1_Stream2_IRQHandler                  0x080002bf   Thumb Code     0  startup_stm32f427xx.o(.text)
    DMA1_Stream3_IRQHandler                  0x080002bf   Thumb Code     0  startup_stm32f427xx.o(.text)
    DMA1_Stream4_IRQHandler                  0x080002bf   Thumb Code     0  startup_stm32f427xx.o(.text)
    DMA1_Stream5_IRQHandler                  0x080002bf   Thumb Code     0  startup_stm32f427xx.o(.text)
    DMA1_Stream6_IRQHandler                  0x080002bf   Thumb Code     0  startup_stm32f427xx.o(.text)
    DMA1_Stream7_IRQHandler                  0x080002bf   Thumb Code     0  startup_stm32f427xx.o(.text)
    DMA2D_IRQHandler                         0x080002bf   Thumb Code     0  startup_stm32f427xx.o(.text)
    DMA2_Stream0_IRQHandler                  0x080002bf   Thumb Code     0  startup_stm32f427xx.o(.text)
    DMA2_Stream1_IRQHandler                  0x080002bf   Thumb Code     0  startup_stm32f427xx.o(.text)
    DMA2_Stream2_IRQHandler                  0x080002bf   Thumb Code     0  startup_stm32f427xx.o(.text)
    DMA2_Stream3_IRQHandler                  0x080002bf   Thumb Code     0  startup_stm32f427xx.o(.text)
    DMA2_Stream4_IRQHandler                  0x080002bf   Thumb Code     0  startup_stm32f427xx.o(.text)
    DMA2_Stream6_IRQHandler                  0x080002bf   Thumb Code     0  startup_stm32f427xx.o(.text)
    ETH_IRQHandler                           0x080002bf   Thumb Code     0  startup_stm32f427xx.o(.text)
    ETH_WKUP_IRQHandler                      0x080002bf   Thumb Code     0  startup_stm32f427xx.o(.text)
    EXTI0_IRQHandler                         0x080002bf   Thumb Code     0  startup_stm32f427xx.o(.text)
    EXTI15_10_IRQHandler                     0x080002bf   Thumb Code     0  startup_stm32f427xx.o(.text)
    EXTI1_IRQHandler                         0x080002bf   Thumb Code     0  startup_stm32f427xx.o(.text)
    EXTI2_IRQHandler                         0x080002bf   Thumb Code     0  startup_stm32f427xx.o(.text)
    EXTI3_IRQHandler                         0x080002bf   Thumb Code     0  startup_stm32f427xx.o(.text)
    EXTI4_IRQHandler                         0x080002bf   Thumb Code     0  startup_stm32f427xx.o(.text)
    EXTI9_5_IRQHandler                       0x080002bf   Thumb Code     0  startup_stm32f427xx.o(.text)
    FLASH_IRQHandler                         0x080002bf   Thumb Code     0  startup_stm32f427xx.o(.text)
    FMC_IRQHandler                           0x080002bf   Thumb Code     0  startup_stm32f427xx.o(.text)
    FPU_IRQHandler                           0x080002bf   Thumb Code     0  startup_stm32f427xx.o(.text)
    HASH_RNG_IRQHandler                      0x080002bf   Thumb Code     0  startup_stm32f427xx.o(.text)
    I2C1_ER_IRQHandler                       0x080002bf   Thumb Code     0  startup_stm32f427xx.o(.text)
    I2C1_EV_IRQHandler                       0x080002bf   Thumb Code     0  startup_stm32f427xx.o(.text)
    I2C2_ER_IRQHandler                       0x080002bf   Thumb Code     0  startup_stm32f427xx.o(.text)
    I2C2_EV_IRQHandler                       0x080002bf   Thumb Code     0  startup_stm32f427xx.o(.text)
    I2C3_ER_IRQHandler                       0x080002bf   Thumb Code     0  startup_stm32f427xx.o(.text)
    I2C3_EV_IRQHandler                       0x080002bf   Thumb Code     0  startup_stm32f427xx.o(.text)
    OTG_FS_IRQHandler                        0x080002bf   Thumb Code     0  startup_stm32f427xx.o(.text)
    OTG_FS_WKUP_IRQHandler                   0x080002bf   Thumb Code     0  startup_stm32f427xx.o(.text)
    OTG_HS_EP1_IN_IRQHandler                 0x080002bf   Thumb Code     0  startup_stm32f427xx.o(.text)
    OTG_HS_EP1_OUT_IRQHandler                0x080002bf   Thumb Code     0  startup_stm32f427xx.o(.text)
    OTG_HS_IRQHandler                        0x080002bf   Thumb Code     0  startup_stm32f427xx.o(.text)
    OTG_HS_WKUP_IRQHandler                   0x080002bf   Thumb Code     0  startup_stm32f427xx.o(.text)
    PVD_IRQHandler                           0x080002bf   Thumb Code     0  startup_stm32f427xx.o(.text)
    RCC_IRQHandler                           0x080002bf   Thumb Code     0  startup_stm32f427xx.o(.text)
    RTC_Alarm_IRQHandler                     0x080002bf   Thumb Code     0  startup_stm32f427xx.o(.text)
    RTC_WKUP_IRQHandler                      0x080002bf   Thumb Code     0  startup_stm32f427xx.o(.text)
    SAI1_IRQHandler                          0x080002bf   Thumb Code     0  startup_stm32f427xx.o(.text)
    SDIO_IRQHandler                          0x080002bf   Thumb Code     0  startup_stm32f427xx.o(.text)
    SPI1_IRQHandler                          0x080002bf   Thumb Code     0  startup_stm32f427xx.o(.text)
    SPI2_IRQHandler                          0x080002bf   Thumb Code     0  startup_stm32f427xx.o(.text)
    SPI3_IRQHandler                          0x080002bf   Thumb Code     0  startup_stm32f427xx.o(.text)
    SPI4_IRQHandler                          0x080002bf   Thumb Code     0  startup_stm32f427xx.o(.text)
    SPI5_IRQHandler                          0x080002bf   Thumb Code     0  startup_stm32f427xx.o(.text)
    SPI6_IRQHandler                          0x080002bf   Thumb Code     0  startup_stm32f427xx.o(.text)
    TAMP_STAMP_IRQHandler                    0x080002bf   Thumb Code     0  startup_stm32f427xx.o(.text)
    TIM1_BRK_TIM9_IRQHandler                 0x080002bf   Thumb Code     0  startup_stm32f427xx.o(.text)
    TIM1_CC_IRQHandler                       0x080002bf   Thumb Code     0  startup_stm32f427xx.o(.text)
    TIM1_TRG_COM_TIM11_IRQHandler            0x080002bf   Thumb Code     0  startup_stm32f427xx.o(.text)
    TIM1_UP_TIM10_IRQHandler                 0x080002bf   Thumb Code     0  startup_stm32f427xx.o(.text)
    TIM2_IRQHandler                          0x080002bf   Thumb Code     0  startup_stm32f427xx.o(.text)
    TIM3_IRQHandler                          0x080002bf   Thumb Code     0  startup_stm32f427xx.o(.text)
    TIM5_IRQHandler                          0x080002bf   Thumb Code     0  startup_stm32f427xx.o(.text)
    TIM6_DAC_IRQHandler                      0x080002bf   Thumb Code     0  startup_stm32f427xx.o(.text)
    TIM7_IRQHandler                          0x080002bf   Thumb Code     0  startup_stm32f427xx.o(.text)
    TIM8_BRK_TIM12_IRQHandler                0x080002bf   Thumb Code     0  startup_stm32f427xx.o(.text)
    TIM8_CC_IRQHandler                       0x080002bf   Thumb Code     0  startup_stm32f427xx.o(.text)
    TIM8_TRG_COM_TIM14_IRQHandler            0x080002bf   Thumb Code     0  startup_stm32f427xx.o(.text)
    TIM8_UP_TIM13_IRQHandler                 0x080002bf   Thumb Code     0  startup_stm32f427xx.o(.text)
    UART4_IRQHandler                         0x080002bf   Thumb Code     0  startup_stm32f427xx.o(.text)
    UART5_IRQHandler                         0x080002bf   Thumb Code     0  startup_stm32f427xx.o(.text)
    UART7_IRQHandler                         0x080002bf   Thumb Code     0  startup_stm32f427xx.o(.text)
    UART8_IRQHandler                         0x080002bf   Thumb Code     0  startup_stm32f427xx.o(.text)
    USART1_IRQHandler                        0x080002bf   Thumb Code     0  startup_stm32f427xx.o(.text)
    USART2_IRQHandler                        0x080002bf   Thumb Code     0  startup_stm32f427xx.o(.text)
    WWDG_IRQHandler                          0x080002bf   Thumb Code     0  startup_stm32f427xx.o(.text)
    __user_initial_stackheap                 0x080002c1   Thumb Code     0  startup_stm32f427xx.o(.text)
    __use_no_semihosting                     0x080002e5   Thumb Code     2  use_no_semi_2.o(.text)
    __2printf                                0x080002e9   Thumb Code    20  noretval__2printf.o(.text)
    __printf                                 0x08000301   Thumb Code   104  __printf.o(.text)
    __aeabi_memcpy4                          0x08000369   Thumb Code     0  rt_memcpy_w.o(.text)
    __aeabi_memcpy8                          0x08000369   Thumb Code     0  rt_memcpy_w.o(.text)
    __rt_memcpy_w                            0x08000369   Thumb Code   100  rt_memcpy_w.o(.text)
    _memcpy_lastbytes_aligned                0x080003b1   Thumb Code     0  rt_memcpy_w.o(.text)
    __use_two_region_memory                  0x080003cd   Thumb Code     2  heapauxi.o(.text)
    __rt_heap_escrow$2region                 0x080003cf   Thumb Code     2  heapauxi.o(.text)
    __rt_heap_expand$2region                 0x080003d1   Thumb Code     2  heapauxi.o(.text)
    __I$use$semihosting                      0x080003d3   Thumb Code     0  use_no_semi.o(.text)
    __use_no_semihosting_swi                 0x080003d3   Thumb Code     2  use_no_semi.o(.text)
    __read_errno                             0x080003d5   Thumb Code    10  _rserrno.o(.text)
    __set_errno                              0x080003df   Thumb Code    12  _rserrno.o(.text)
    __lib_sel_fp_printf                      0x080003eb   Thumb Code     2  _printf_fp_dec.o(.text)
    _printf_fp_dec_real                      0x0800059d   Thumb Code   620  _printf_fp_dec.o(.text)
    _printf_char_file                        0x08000809   Thumb Code    32  _printf_char_file.o(.text)
    __rt_locale                              0x0800082d   Thumb Code     8  rt_locale_intlibspace.o(.text)
    __aeabi_errno_addr                       0x08000835   Thumb Code     8  rt_errno_addr_intlibspace.o(.text)
    __errno$intlibspace                      0x08000835   Thumb Code     0  rt_errno_addr_intlibspace.o(.text)
    __rt_errno_addr$intlibspace              0x08000835   Thumb Code     0  rt_errno_addr_intlibspace.o(.text)
    _ll_udiv10                               0x0800083d   Thumb Code   138  lludiv10.o(.text)
    _printf_char_common                      0x080008d3   Thumb Code    32  _printf_char_common.o(.text)
    _printf_fp_infnan                        0x080008f9   Thumb Code   112  _printf_fp_infnan.o(.text)
    _btod_etento                             0x08000979   Thumb Code   224  bigflt0.o(.text)
    ferror                                   0x08000a5d   Thumb Code     8  ferror.o(.text)
    __user_libspace                          0x08000a65   Thumb Code     8  libspace.o(.text)
    __user_perproc_libspace                  0x08000a65   Thumb Code     0  libspace.o(.text)
    __user_perthread_libspace                0x08000a65   Thumb Code     0  libspace.o(.text)
    __user_setup_stackheap                   0x08000a6d   Thumb Code    74  sys_stackheap_outer.o(.text)
    exit                                     0x08000ab7   Thumb Code    18  exit.o(.text)
    strcmp                                   0x08000ac9   Thumb Code   128  strcmpv7m.o(.text)
    _btod_d2e                                0x08000b49   Thumb Code    62  btod.o(CL$$btod_d2e)
    _d2e_denorm_low                          0x08000b87   Thumb Code    70  btod.o(CL$$btod_d2e_denorm_low)
    _d2e_norm_op1                            0x08000bcd   Thumb Code    96  btod.o(CL$$btod_d2e_norm_op1)
    __btod_div_common                        0x08000c2d   Thumb Code   696  btod.o(CL$$btod_div_common)
    _e2e                                     0x08000f65   Thumb Code   220  btod.o(CL$$btod_e2e)
    _btod_ediv                               0x08001041   Thumb Code    42  btod.o(CL$$btod_ediv)
    _btod_emul                               0x0800106b   Thumb Code    42  btod.o(CL$$btod_emul)
    __btod_mult_common                       0x08001095   Thumb Code   580  btod.o(CL$$btod_mult_common)
    Angle_deal                               0x080012d9   Thumb Code   336  can1.o(i.Angle_deal)
    Astrict_Acc                              0x08001431   Thumb Code   806  higher_class.o(i.Astrict_Acc)
    BusFault_Handler                         0x08001791   Thumb Code     4  stm32f4xx_it.o(i.BusFault_Handler)
    CAN1_Configuration                       0x08001795   Thumb Code   246  can1.o(i.CAN1_Configuration)
    CAN1_RX0_IRQHandler                      0x08001895   Thumb Code   684  can1.o(i.CAN1_RX0_IRQHandler)
    CAN1_SendCommand_chassis                 0x08001b51   Thumb Code   134  can1.o(i.CAN1_SendCommand_chassis)
    CAN1_Send_Msg_gimbal                     0x08001bdd   Thumb Code   108  can1.o(i.CAN1_Send_Msg_gimbal)
    CAN2_Configuration                       0x08001c4d   Thumb Code   250  can2.o(i.CAN2_Configuration)
    CAN2_RX0_IRQHandler                      0x08001d51   Thumb Code   226  can2.o(i.CAN2_RX0_IRQHandler)
    CAN_ClearFlag                            0x08001e51   Thumb Code    52  stm32f4xx_can.o(i.CAN_ClearFlag)
    CAN_ClearITPendingBit                    0x08001e89   Thumb Code   162  stm32f4xx_can.o(i.CAN_ClearITPendingBit)
    CAN_DeInit                               0x08001f31   Thumb Code    50  stm32f4xx_can.o(i.CAN_DeInit)
    CAN_FilterInit                           0x08001f69   Thumb Code   258  stm32f4xx_can.o(i.CAN_FilterInit)
    CAN_GetITStatus                          0x08002071   Thumb Code   284  stm32f4xx_can.o(i.CAN_GetITStatus)
    CAN_ITConfig                             0x08002191   Thumb Code    18  stm32f4xx_can.o(i.CAN_ITConfig)
    CAN_Init                                 0x080021a3   Thumb Code   276  stm32f4xx_can.o(i.CAN_Init)
    CAN_Receive                              0x080022b7   Thumb Code   240  stm32f4xx_can.o(i.CAN_Receive)
    CAN_StructInit                           0x080023a7   Thumb Code    32  stm32f4xx_can.o(i.CAN_StructInit)
    CAN_Transmit                             0x080023c7   Thumb Code   294  stm32f4xx_can.o(i.CAN_Transmit)
    CAN_TransmitStatus                       0x080024ed   Thumb Code   138  stm32f4xx_can.o(i.CAN_TransmitStatus)
    Chassis_AutoFollow                       0x0800258d   Thumb Code   626  shoot.o(i.Chassis_AutoFollow)
    Chassis_Task                             0x08002819   Thumb Code   110  user_api.o(i.Chassis_Task)
    Comm_umpire_Init                         0x080028b1   Thumb Code   262  comm_umpire.o(i.Comm_umpire_Init)
    DMA2_Stream5_IRQHandler                  0x080029c9   Thumb Code    40  remotecontrol.o(i.DMA2_Stream5_IRQHandler)
    DMA2_Stream7_IRQHandler                  0x080029f9   Thumb Code    26  comm_umpire.o(i.DMA2_Stream7_IRQHandler)
    DMA_ClearFlag                            0x08002a19   Thumb Code    38  stm32f4xx_dma.o(i.DMA_ClearFlag)
    DMA_ClearITPendingBit                    0x08002a4d   Thumb Code    38  stm32f4xx_dma.o(i.DMA_ClearITPendingBit)
    DMA_Cmd                                  0x08002a81   Thumb Code    22  stm32f4xx_dma.o(i.DMA_Cmd)
    DMA_DeInit                               0x08002a99   Thumb Code   324  stm32f4xx_dma.o(i.DMA_DeInit)
    DMA_GetCurrDataCounter                   0x08002bf1   Thumb Code     8  stm32f4xx_dma.o(i.DMA_GetCurrDataCounter)
    DMA_GetFlagStatus                        0x08002bf9   Thumb Code    54  stm32f4xx_dma.o(i.DMA_GetFlagStatus)
    DMA_ITConfig                             0x08002c3d   Thumb Code    58  stm32f4xx_dma.o(i.DMA_ITConfig)
    DMA_Init                                 0x08002c79   Thumb Code    82  stm32f4xx_dma.o(i.DMA_Init)
    DMA_SetCurrDataCounter                   0x08002cd1   Thumb Code     4  stm32f4xx_dma.o(i.DMA_SetCurrDataCounter)
    DealDataPack                             0x08002cd5   Thumb Code   380  comm_umpire.o(i.DealDataPack)
    DebugMon_Handler                         0x08002e81   Thumb Code     2  stm32f4xx_it.o(i.DebugMon_Handler)
    Encoder_angle_conversion                 0x08002e85   Thumb Code   222  shoot.o(i.Encoder_angle_conversion)
    FailSafe_Check                           0x08002f91   Thumb Code    34  remotecontrol.o(i.FailSafe_Check)
    GPIO_Init                                0x08002fbd   Thumb Code   144  stm32f4xx_gpio.o(i.GPIO_Init)
    GPIO_PinAFConfig                         0x0800304d   Thumb Code    70  stm32f4xx_gpio.o(i.GPIO_PinAFConfig)
    GPIO_ResetBits                           0x08003093   Thumb Code     4  stm32f4xx_gpio.o(i.GPIO_ResetBits)
    GPIO_SetBits                             0x08003097   Thumb Code     4  stm32f4xx_gpio.o(i.GPIO_SetBits)
    Get_CRC16_Check_Sum                      0x0800309d   Thumb Code    38  crc.o(i.Get_CRC16_Check_Sum)
    Get_CRC8_Check_Sum                       0x080030c9   Thumb Code    30  crc.o(i.Get_CRC8_Check_Sum)
    Get_Ctrl_Data                            0x080030ed   Thumb Code  1230  user_api.o(i.Get_Ctrl_Data)
    Get_RC_Data                              0x080035cd   Thumb Code   222  remotecontrol.o(i.Get_RC_Data)
    Get_UmpireData                           0x080036b9   Thumb Code   222  comm_umpire.o(i.Get_UmpireData)
    Gimbal_Ctrl                              0x080037a1   Thumb Code   352  shoot.o(i.Gimbal_Ctrl)
    Gimbal_Ctrl_init                         0x08003925   Thumb Code    12  shoot.o(i.Gimbal_Ctrl_init)
    HardFault_Handler                        0x08003939   Thumb Code     4  stm32f4xx_it.o(i.HardFault_Handler)
    IMUSO3Thread                             0x0800393d   Thumb Code  1172  imu.o(i.IMUSO3Thread)
    IMU_Init                                 0x08003dd5   Thumb Code    82  mpu6500.o(i.IMU_Init)
    IMU_Temp_Ctrl                            0x08003e31   Thumb Code    58  imu.o(i.IMU_Temp_Ctrl)
    Inverse_Kinematic_Ctrl                   0x08003e75   Thumb Code   408  ctrl_chassis.o(i.Inverse_Kinematic_Ctrl)
    KeyDataProcess                           0x08004021   Thumb Code   282  remotecontrol.o(i.KeyDataProcess)
    LED_Init                                 0x0800413d   Thumb Code    88  led.o(i.LED_Init)
    LPF2pApply_1                             0x0800419d   Thumb Code   186  filter.o(i.LPF2pApply_1)
    LPF2pApply_2                             0x0800427d   Thumb Code   186  filter.o(i.LPF2pApply_2)
    LPF2pApply_3                             0x0800435d   Thumb Code   186  filter.o(i.LPF2pApply_3)
    LPF2pApply_4                             0x0800443d   Thumb Code   186  filter.o(i.LPF2pApply_4)
    LPF2pApply_5                             0x0800451d   Thumb Code   186  filter.o(i.LPF2pApply_5)
    LPF2pApply_6                             0x080045fd   Thumb Code   186  filter.o(i.LPF2pApply_6)
    LPF2pSetCutoffFreq_1                     0x080046dd   Thumb Code   236  filter.o(i.LPF2pSetCutoffFreq_1)
    LPF2pSetCutoffFreq_2                     0x080047ed   Thumb Code   236  filter.o(i.LPF2pSetCutoffFreq_2)
    LPF2pSetCutoffFreq_3                     0x080048fd   Thumb Code   236  filter.o(i.LPF2pSetCutoffFreq_3)
    LPF2pSetCutoffFreq_4                     0x08004a0d   Thumb Code   236  filter.o(i.LPF2pSetCutoffFreq_4)
    LPF2pSetCutoffFreq_5                     0x08004b1d   Thumb Code   236  filter.o(i.LPF2pSetCutoffFreq_5)
    LPF2pSetCutoffFreq_6                     0x08004c2d   Thumb Code   236  filter.o(i.LPF2pSetCutoffFreq_6)
    Laser_Init                               0x08004d3d   Thumb Code    50  led.o(i.Laser_Init)
    MPU6050AccRead                           0x08004d75   Thumb Code    76  mpu6500.o(i.MPU6050AccRead)
    MPU6050GyroRead                          0x08004dc1   Thumb Code    76  mpu6500.o(i.MPU6050GyroRead)
    MPU6500_Init                             0x08004e0d   Thumb Code    74  mpu6500.o(i.MPU6500_Init)
    MPU6500_Read_Reg                         0x08004e61   Thumb Code    52  mpu6500.o(i.MPU6500_Read_Reg)
    MPU6500_Write_Reg                        0x08004ea5   Thumb Code    50  mpu6500.o(i.MPU6500_Write_Reg)
    Matrix_Translate                         0x08004ee5   Thumb Code   136  higher_class.o(i.Matrix_Translate)
    MemManage_Handler                        0x08004f75   Thumb Code     4  stm32f4xx_it.o(i.MemManage_Handler)
    NMI_Handler                              0x08004f79   Thumb Code     2  stm32f4xx_it.o(i.NMI_Handler)
    NVIC_Init                                0x08004f7d   Thumb Code   106  misc.o(i.NVIC_Init)
    NVIC_PriorityGroupConfig                 0x08004ff5   Thumb Code    10  misc.o(i.NVIC_PriorityGroupConfig)
    PID_Control                              0x08005a4d   Thumb Code   410  pid.o(i.PID_Control)
    PWM_Write                                0x08005be9   Thumb Code    56  pwm.o(i.PWM_Write)
    PendSV_Handler                           0x08005c25   Thumb Code     2  stm32f4xx_it.o(i.PendSV_Handler)
    RCC_AHB1PeriphClockCmd                   0x08005c89   Thumb Code    26  stm32f4xx_rcc.o(i.RCC_AHB1PeriphClockCmd)
    RCC_APB1PeriphClockCmd                   0x08005ca9   Thumb Code    26  stm32f4xx_rcc.o(i.RCC_APB1PeriphClockCmd)
    RCC_APB1PeriphResetCmd                   0x08005cc9   Thumb Code    26  stm32f4xx_rcc.o(i.RCC_APB1PeriphResetCmd)
    RCC_APB2PeriphClockCmd                   0x08005ce9   Thumb Code    26  stm32f4xx_rcc.o(i.RCC_APB2PeriphClockCmd)
    RCC_APB2PeriphResetCmd                   0x08005d09   Thumb Code    26  stm32f4xx_rcc.o(i.RCC_APB2PeriphResetCmd)
    RCC_GetClocksFreq                        0x08005d29   Thumb Code   214  stm32f4xx_rcc.o(i.RCC_GetClocksFreq)
    RC_Init                                  0x08005e11   Thumb Code   278  remotecontrol.o(i.RC_Init)
    ReadIMUSensorHandle                      0x08005f41   Thumb Code   334  mpu6500.o(i.ReadIMUSensorHandle)
    SPI5_Init                                0x080060b1   Thumb Code   216  spi.o(i.SPI5_Init)
    SPI5_ReadWriteByte                       0x08006191   Thumb Code    82  spi.o(i.SPI5_ReadWriteByte)
    SPI_Cmd                                  0x080061e9   Thumb Code    24  stm32f4xx_spi.o(i.SPI_Cmd)
    SPI_I2S_GetFlagStatus                    0x08006201   Thumb Code    18  stm32f4xx_spi.o(i.SPI_I2S_GetFlagStatus)
    SPI_I2S_ReceiveData                      0x08006213   Thumb Code     6  stm32f4xx_spi.o(i.SPI_I2S_ReceiveData)
    SPI_I2S_SendData                         0x08006219   Thumb Code     4  stm32f4xx_spi.o(i.SPI_I2S_SendData)
    SPI_Init                                 0x0800621d   Thumb Code    60  stm32f4xx_spi.o(i.SPI_Init)
    SVC_Handler                              0x08006259   Thumb Code     2  stm32f4xx_it.o(i.SVC_Handler)
    Shoot_Ctrl                               0x0800637d   Thumb Code   300  user_api.o(i.Shoot_Ctrl)
    Stop_Chassis_Task                        0x080064ed   Thumb Code    96  user_api.o(i.Stop_Chassis_Task)
    SysTick_Handler                          0x08006561   Thumb Code    12  stm32f4xx_it.o(i.SysTick_Handler)
    SystemInit                               0x08006571   Thumb Code    88  system_stm32f4xx.o(i.SystemInit)
    TIM3_PWM_Init                            0x080065d9   Thumb Code   186  pwm.o(i.TIM3_PWM_Init)
    TIM4_IRQHandler                          0x0800669d   Thumb Code   204  timer.o(i.TIM4_IRQHandler)
    TIM4_Int_Init                            0x0800679d   Thumb Code    94  timer.o(i.TIM4_Int_Init)
    TIM_ARRPreloadConfig                     0x08006801   Thumb Code    24  stm32f4xx_tim.o(i.TIM_ARRPreloadConfig)
    TIM_ClearITPendingBit                    0x08006819   Thumb Code     6  stm32f4xx_tim.o(i.TIM_ClearITPendingBit)
    TIM_Cmd                                  0x0800681f   Thumb Code    24  stm32f4xx_tim.o(i.TIM_Cmd)
    TIM_CtrlPWMOutputs                       0x08006837   Thumb Code    30  stm32f4xx_tim.o(i.TIM_CtrlPWMOutputs)
    TIM_DeInit                               0x08006855   Thumb Code   346  stm32f4xx_tim.o(i.TIM_DeInit)
    TIM_GetITStatus                          0x080069e5   Thumb Code    34  stm32f4xx_tim.o(i.TIM_GetITStatus)
    TIM_ITConfig                             0x08006a07   Thumb Code    18  stm32f4xx_tim.o(i.TIM_ITConfig)
    TIM_OC1Init                              0x08006a19   Thumb Code   114  stm32f4xx_tim.o(i.TIM_OC1Init)
    TIM_OC1PreloadConfig                     0x08006a95   Thumb Code    18  stm32f4xx_tim.o(i.TIM_OC1PreloadConfig)
    TIM_OC2Init                              0x08006aa9   Thumb Code   154  stm32f4xx_tim.o(i.TIM_OC2Init)
    TIM_OC2PreloadConfig                     0x08006b4d   Thumb Code    26  stm32f4xx_tim.o(i.TIM_OC2PreloadConfig)
    TIM_OC4Init                              0x08006b69   Thumb Code   112  stm32f4xx_tim.o(i.TIM_OC4Init)
    TIM_OC4PreloadConfig                     0x08006be1   Thumb Code    26  stm32f4xx_tim.o(i.TIM_OC4PreloadConfig)
    TIM_TimeBaseInit                         0x08006bfd   Thumb Code   104  stm32f4xx_tim.o(i.TIM_TimeBaseInit)
    Total_PID_Init                           0x08006c81   Thumb Code   486  pid.o(i.Total_PID_Init)
    Twist                                    0x08006eb5   Thumb Code   194  shoot.o(i.Twist)
    USART3_IRQHandler                        0x08006f99   Thumb Code   122  usart.o(i.USART3_IRQHandler)
    USART6_IRQHandler                        0x08007021   Thumb Code    90  comm_umpire.o(i.USART6_IRQHandler)
    USART_Cmd                                0x0800708d   Thumb Code    24  stm32f4xx_usart.o(i.USART_Cmd)
    USART_DMACmd                             0x080070a5   Thumb Code    18  stm32f4xx_usart.o(i.USART_DMACmd)
    USART_DeInit                             0x080070b9   Thumb Code   206  stm32f4xx_usart.o(i.USART_DeInit)
    USART_GetITStatus                        0x080071a9   Thumb Code    84  stm32f4xx_usart.o(i.USART_GetITStatus)
    USART_ITConfig                           0x080071fd   Thumb Code    74  stm32f4xx_usart.o(i.USART_ITConfig)
    USART_Init                               0x08007249   Thumb Code   204  stm32f4xx_usart.o(i.USART_Init)
    USART_ReceiveData                        0x0800731d   Thumb Code    10  stm32f4xx_usart.o(i.USART_ReceiveData)
    UsageFault_Handler                       0x08007327   Thumb Code     4  stm32f4xx_it.o(i.UsageFault_Handler)
    Verify_CRC16_Check_Sum                   0x0800732d   Thumb Code    50  crc.o(i.Verify_CRC16_Check_Sum)
    Verify_CRC8_Check_Sum                    0x08007365   Thumb Code    46  crc.o(i.Verify_CRC8_Check_Sum)
    Yaw_angle_pid                            0x08007395   Thumb Code   446  shoot.o(i.Yaw_angle_pid)
    __ARM_fpclassify                         0x08007595   Thumb Code    48  fpclassify.o(i.__ARM_fpclassify)
    __ARM_fpclassifyf                        0x080075c5   Thumb Code    38  fpclassifyf.o(i.__ARM_fpclassifyf)
    __hardfp_asinf                           0x0800760d   Thumb Code   258  asinf.o(i.__hardfp_asinf)
    __hardfp_atan                            0x08007739   Thumb Code   622  atan.o(i.__hardfp_atan)
    __hardfp_atan2                           0x08007a11   Thumb Code   448  atan2.o(i.__hardfp_atan2)
    __hardfp_atan2f                          0x08007c11   Thumb Code   594  atan2f.o(i.__hardfp_atan2f)
    __hardfp_cosf                            0x08007ebd   Thumb Code   280  cosf.o(i.__hardfp_cosf)
    __hardfp_fabs                            0x0800800d   Thumb Code    20  fabs.o(i.__hardfp_fabs)
    __hardfp_sinf                            0x08008021   Thumb Code   344  sinf.o(i.__hardfp_sinf)
    __hardfp_sqrt                            0x080081b1   Thumb Code   122  sqrt.o(i.__hardfp_sqrt)
    __hardfp_tanf                            0x0800822d   Thumb Code   322  tanf.o(i.__hardfp_tanf)
    __kernel_poly                            0x080083a9   Thumb Code   248  poly.o(i.__kernel_poly)
    __mathlib_dbl_infnan                     0x080084a1   Thumb Code    20  dunder.o(i.__mathlib_dbl_infnan)
    __mathlib_dbl_infnan2                    0x080084b5   Thumb Code    20  dunder.o(i.__mathlib_dbl_infnan2)
    __mathlib_dbl_underflow                  0x080084c9   Thumb Code    24  dunder.o(i.__mathlib_dbl_underflow)
    __mathlib_flt_infnan                     0x080084e9   Thumb Code     6  funder.o(i.__mathlib_flt_infnan)
    __mathlib_flt_infnan2                    0x080084ef   Thumb Code     6  funder.o(i.__mathlib_flt_infnan2)
    __mathlib_flt_invalid                    0x080084f5   Thumb Code    10  funder.o(i.__mathlib_flt_invalid)
    __mathlib_flt_underflow                  0x08008505   Thumb Code    10  funder.o(i.__mathlib_flt_underflow)
    __mathlib_rredf2                         0x08008515   Thumb Code   316  rredf.o(i.__mathlib_rredf2)
    _sys_exit                                0x08008669   Thumb Code     4  usart.o(i._sys_exit)
    atan                                     0x0800866d   Thumb Code    16  atan.o(i.atan)
    cycleCounterInit                         0x0800867d   Thumb Code    22  stm32f4xx_it.o(i.cycleCounterInit)
    delay_ms                                 0x0800869d   Thumb Code    34  delay.o(i.delay_ms)
    digital_init                             0x080086c1   Thumb Code    64  digital.o(i.digital_init)
    encoders_err                             0x08008705   Thumb Code    78  ctrl_chassis.o(i.encoders_err)
    encoders_err_shoot                       0x08008761   Thumb Code    66  shoot.o(i.encoders_err_shoot)
    fabs                                     0x080087b1   Thumb Code    24  fabs.o(i.fabs)
    fputc                                    0x080087c9   Thumb Code    24  usart.o(i.fputc)
    fric1_on                                 0x080087e5   Thumb Code    14  fric.o(i.fric1_on)
    fric2_on                                 0x080087f3   Thumb Code    14  fric.o(i.fric2_on)
    fric_PWM_configuration                   0x08008801   Thumb Code   306  fric.o(i.fric_PWM_configuration)
    fric_off                                 0x08008945   Thumb Code    24  fric.o(i.fric_off)
    kalman                                   0x080089c9   Thumb Code   144  can1.o(i.kalman)
    laser_off                                0x08008a69   Thumb Code    14  led.o(i.laser_off)
    laser_on                                 0x08008a7d   Thumb Code    14  led.o(i.laser_on)
    main                                     0x08008a91   Thumb Code   746  main.o(i.main)
    micros                                   0x08008dbd   Thumb Code    58  stm32f4xx_it.o(i.micros)
    motor_angle_ctrl                         0x08008e01   Thumb Code   490  ctrl_chassis.o(i.motor_angle_ctrl)
    motor_angle_pid                          0x08009011   Thumb Code   520  shoot.o(i.motor_angle_pid)
    power_ctrl_configuration                 0x08009255   Thumb Code    66  power_ctrl.o(i.power_ctrl_configuration)
    power_ctrl_off                           0x0800929d   Thumb Code    26  power_ctrl.o(i.power_ctrl_off)
    shoot_control_loop                       0x080092bd   Thumb Code    22  shoot.o(i.shoot_control_loop)
    sqrtf                                    0x080092d3   Thumb Code    62  sqrtf.o(i.sqrtf)
    usart_init                               0x08009311   Thumb Code   164  usart.o(i.usart_init)
    virtual_encoders                         0x080093bd   Thumb Code    94  ctrl_chassis.o(i.virtual_encoders)
    virtual_encoders_shoot                   0x08009421   Thumb Code    64  shoot.o(i.virtual_encoders_shoot)
    _get_lc_numeric                          0x08009465   Thumb Code    44  lc_numeric_c.o(locale$$code)
    __aeabi_dneg                             0x08009491   Thumb Code     0  basic.o(x$fpl$basic)
    _dneg                                    0x08009491   Thumb Code     6  basic.o(x$fpl$basic)
    __aeabi_fneg                             0x08009497   Thumb Code     0  basic.o(x$fpl$basic)
    _fneg                                    0x08009497   Thumb Code     6  basic.o(x$fpl$basic)
    _dabs                                    0x0800949d   Thumb Code     6  basic.o(x$fpl$basic)
    _fabs                                    0x080094a3   Thumb Code     6  basic.o(x$fpl$basic)
    __aeabi_d2f                              0x080094a9   Thumb Code     0  d2f.o(x$fpl$d2f)
    _d2f                                     0x080094a9   Thumb Code    98  d2f.o(x$fpl$d2f)
    __aeabi_dadd                             0x0800950d   Thumb Code     0  daddsub_clz.o(x$fpl$dadd)
    _dadd                                    0x0800950d   Thumb Code   332  daddsub_clz.o(x$fpl$dadd)
    __fpl_dcmp_Inf                           0x0800965d   Thumb Code    24  dcmpi.o(x$fpl$dcmpinf)
    __aeabi_ddiv                             0x08009675   Thumb Code     0  ddiv.o(x$fpl$ddiv)
    _ddiv                                    0x08009675   Thumb Code   552  ddiv.o(x$fpl$ddiv)
    __aeabi_cdcmpeq                          0x08009925   Thumb Code     0  deqf.o(x$fpl$deqf)
    _dcmpeq                                  0x08009925   Thumb Code   120  deqf.o(x$fpl$deqf)
    __aeabi_d2iz                             0x0800999d   Thumb Code     0  dfix.o(x$fpl$dfix)
    _dfix                                    0x0800999d   Thumb Code    94  dfix.o(x$fpl$dfix)
    __aeabi_i2d                              0x080099fb   Thumb Code     0  dflt_clz.o(x$fpl$dflt)
    _dflt                                    0x080099fb   Thumb Code    46  dflt_clz.o(x$fpl$dflt)
    __aeabi_cdcmple                          0x08009a29   Thumb Code     0  dleqf.o(x$fpl$dleqf)
    _dcmple                                  0x08009a29   Thumb Code   120  dleqf.o(x$fpl$dleqf)
    __fpl_dcmple_InfNaN                      0x08009a8b   Thumb Code     0  dleqf.o(x$fpl$dleqf)
    __aeabi_dmul                             0x08009aa1   Thumb Code     0  dmul.o(x$fpl$dmul)
    _dmul                                    0x08009aa1   Thumb Code   332  dmul.o(x$fpl$dmul)
    __fpl_dnaninf                            0x08009bf5   Thumb Code   156  dnaninf.o(x$fpl$dnaninf)
    __fpl_dretinf                            0x08009c91   Thumb Code    12  dretinf.o(x$fpl$dretinf)
    __aeabi_drsub                            0x08009c9d   Thumb Code     0  daddsub_clz.o(x$fpl$drsb)
    _drsb                                    0x08009c9d   Thumb Code    22  daddsub_clz.o(x$fpl$drsb)
    _dsqrt                                   0x08009cb5   Thumb Code   404  dsqrt_umaal.o(x$fpl$dsqrt)
    __aeabi_dsub                             0x08009e4d   Thumb Code     0  daddsub_clz.o(x$fpl$dsub)
    _dsub                                    0x08009e4d   Thumb Code   464  daddsub_clz.o(x$fpl$dsub)
    __aeabi_f2d                              0x0800a021   Thumb Code     0  f2d.o(x$fpl$f2d)
    _f2d                                     0x0800a021   Thumb Code    86  f2d.o(x$fpl$f2d)
    __fpl_fnaninf                            0x0800a077   Thumb Code   140  fnaninf.o(x$fpl$fnaninf)
    _fp_init                                 0x0800a103   Thumb Code    10  fpinit.o(x$fpl$fpinit)
    __fplib_config_fpu_vfp                   0x0800a10b   Thumb Code     0  fpinit.o(x$fpl$fpinit)
    __fplib_config_pureend_doubles           0x0800a10b   Thumb Code     0  fpinit.o(x$fpl$fpinit)
    __fpl_fretinf                            0x0800a10d   Thumb Code    10  fretinf.o(x$fpl$fretinf)
    _printf_fp_dec                           0x0800a117   Thumb Code     4  printf1.o(x$fpl$printf1)
    __I$use$fp                               0x0800a11a   Number         0  usenofp.o(x$fpl$usenofp)
    CRC8_INIT                                0x0800a130   Data           1  crc.o(.constdata)
    CRC8_TAB                                 0x0800a131   Data         256  crc.o(.constdata)
    wCRC_Table                               0x0800a232   Data         512  crc.o(.constdata)
    __mathlib_zero                           0x0800a4f0   Data           8  qnan.o(.constdata)
    Region$$Table$$Base                      0x0800a5ac   Number         0  anon$$obj.o(Region$$Table)
    Region$$Table$$Limit                     0x0800a5cc   Number         0  anon$$obj.o(Region$$Table)
    SystemCoreClock                          0x20000000   Data           4  system_stm32f4xx.o(.data)
    AHBPrescTable                            0x20000004   Data          16  system_stm32f4xx.o(.data)
    __stdout                                 0x20000024   Data           4  usart.o(.data)
    USART_RX_STA                             0x20000028   Data           2  usart.o(.data)
    cnt                                      0x2000002c   Data           5  can1.o(.data)
    Q                                        0x20000034   Data           4  can1.o(.data)
    R                                        0x20000038   Data           4  can1.o(.data)
    variance_kalman                          0x2000003c   Data          40  can1.o(.data)
    MPU_id                                   0x20000064   Data           1  mpu6500.o(.data)
    failsafe_flag                            0x2000006a   Data           1  remotecontrol.o(.data)
    Umpire_State                             0x2000006c   Data           8  comm_umpire.o(.data)
    Umpire_Hurt                              0x20000074   Data           2  comm_umpire.o(.data)
    Umpire_Shoot                             0x20000076   Data           6  comm_umpire.o(.data)
    Umpire_Rfid                              0x2000007c   Data           2  comm_umpire.o(.data)
    Umpire_GameResult                        0x2000007e   Data           1  comm_umpire.o(.data)
    Umpire_Buff                              0x2000007f   Data           2  comm_umpire.o(.data)
    TX2_Data                                 0x20000081   Data           8  can2.o(.data)
    Hz500_Cnt                                0x20000089   Data           1  timer.o(.data)
    Hz200_Cnt1                               0x2000008a   Data           1  timer.o(.data)
    Hz100_Cnt1                               0x2000008b   Data           1  timer.o(.data)
    Hz50_Cnt                                 0x2000008c   Data           1  timer.o(.data)
    Hz200_Cnt2                               0x2000008d   Data           1  timer.o(.data)
    Hz100_Cnt2                               0x2000008e   Data           1  timer.o(.data)
    Flag50Hz                                 0x2000008f   Data           1  timer.o(.data)
    Flag100Hz_Thread1                        0x20000090   Data           1  timer.o(.data)
    Flag100Hz_Thread2                        0x20000091   Data           1  timer.o(.data)
    Flag200Hz_Thread1                        0x20000092   Data           1  timer.o(.data)
    Flag200Hz_Thread2                        0x20000093   Data           1  timer.o(.data)
    Flag500Hz                                0x20000094   Data           1  timer.o(.data)
    CRC_INIT                                 0x20000096   Data           2  crc.o(.data)
    Encoders                                 0x20000098   Data           8  ctrl_chassis.o(.data)
    Vx_Lpf                                   0x20000160   Data           4  higher_class.o(.data)
    Vy_Lpf                                   0x20000164   Data           4  higher_class.o(.data)
    Wz_Lpf                                   0x20000168   Data           4  higher_class.o(.data)
    bFilterInit                              0x200001c0   Data           1  imu.o(.data)
    View_Flag                                0x200001d0   Data           1  user_api.o(.data)
    Bullet_Flag                              0x200001d1   Data           1  user_api.o(.data)
    Chassis_Flag                             0x200001d2   Data           1  user_api.o(.data)
    Left_Flag                                0x200001d3   Data           1  user_api.o(.data)
    Right_Flag                               0x200001d4   Data           1  user_api.o(.data)
    viewcnt                                  0x200001d5   Data           1  user_api.o(.data)
    bulletcnt                                0x200001d6   Data           1  user_api.o(.data)
    chassiscnt                               0x200001d7   Data           1  user_api.o(.data)
    armcnt                                   0x200001d8   Data           1  user_api.o(.data)
    leftcnt                                  0x200001d9   Data           1  user_api.o(.data)
    rightcnt                                 0x200001da   Data           1  user_api.o(.data)
    TrashyTime_Flag                          0x200001db   Data           1  user_api.o(.data)
    Twist_Flag                               0x200001dc   Data           1  user_api.o(.data)
    Vision_Flag                              0x200001dd   Data           1  user_api.o(.data)
    ShootBuff_Flag                           0x200001de   Data           1  user_api.o(.data)
    Shoot_Flag                               0x200001df   Data           1  user_api.o(.data)
    Shoot_Motor                              0x200001e0   Data           1  user_api.o(.data)
    Chassis_mode                             0x200001e1   Data           1  user_api.o(.data)
    TwistCnt                                 0x200001e2   Data           1  user_api.o(.data)
    BuffCnt                                  0x200001e3   Data           1  user_api.o(.data)
    ShootMotorCnt                            0x200001e4   Data           1  user_api.o(.data)
    ShootProject_TrashyTime                  0x200001e8   Data           8  user_api.o(.data)
    ShootProject_Level1                      0x200001f0   Data           8  user_api.o(.data)
    ShootProject_Level2                      0x200001f8   Data           8  user_api.o(.data)
    ShootProject_Level3                      0x20000200   Data           8  user_api.o(.data)
    ShootProject_Pillbox                     0x20000208   Data           8  user_api.o(.data)
    ShootProject_Gate                        0x20000210   Data           8  user_api.o(.data)
    SmallBuff                                0x20000218   Data           8  user_api.o(.data)
    BigBuff                                  0x20000220   Data           8  user_api.o(.data)
    Shoot_Frequency                          0x20000228   Data           2  user_api.o(.data)
    targetSpeed                              0x2000022c   Data           2  shoot.o(.data)
    pid_out                                  0x2000022e   Data           2  shoot.o(.data)
    printfBuff1                              0x20000230   Data           4  shoot.o(.data)
    printfBuff2                              0x20000234   Data           4  shoot.o(.data)
    Yaw_EncodeAngle                          0x20000238   Data           4  shoot.o(.data)
    Pitch_EncodeAngle                        0x2000023c   Data           4  shoot.o(.data)
    E_yaw                                    0x20000240   Data           4  shoot.o(.data)
    angleYaw                                 0x20000244   Data           4  shoot.o(.data)
    shootSpeed                               0x20000248   Data           2  shoot.o(.data)
    Encoders_shoot                           0x20000258   Data           2  shoot.o(.data)
    twist                                    0x20000270   Data           4  shoot.o(.data)
    loopcnt                                  0x20000278   Data           2  main.o(.data)
    fricOn                                   0x2000027c   Data           4  main.o(.data)
    sysTickUptime                            0x20000284   Data           4  stm32f4xx_it.o(.data)
    USART_RX_BUF                             0x20000288   Data         200  usart.o(.bss)
    motor_data                               0x20000350   Data          84  can1.o(.bss)
    old_angle                                0x200003a4   Data          14  can1.o(.bss)
    old_kalman                               0x200003b4   Data          40  can1.o(.bss)
    imu                                      0x200003dc   Data         196  mpu6500.o(.bss)
    sbus_rx_buffer                           0x200004a0   Data          25  remotecontrol.o(.bss)
    RC_Ctl                                   0x200004b9   Data          36  remotecontrol.o(.bss)
    Rx_buffer                                0x200004dd   Data         100  comm_umpire.o(.bss)
    SendBuff                                 0x20000541   Data         100  comm_umpire.o(.bss)
    Umpire_PowerHeat                         0x200005a5   Data          20  comm_umpire.o(.bss)
    Umpire_RobotPos                          0x200005b9   Data          16  comm_umpire.o(.bss)
    Vision_Data                              0x200005cc   Data          12  can2.o(.bss)
    Control_data                             0x20000620   Data          20  user_api.o(.bss)
    old_output                               0x20000634   Data          16  user_api.o(.bss)
    motor_speed_pid                          0x20000644   Data         464  pid.o(.bss)
    Yaw_speed_pid                            0x20000814   Data         116  pid.o(.bss)
    Pitch_speed_pid                          0x20000888   Data         116  pid.o(.bss)
    Pitch_angle_pid                          0x200008fc   Data         116  pid.o(.bss)
    Fire_speed_pid                           0x20000970   Data         116  pid.o(.bss)
    __libspace_start                         0x200009e4   Data          96  libspace.o(.bss)
    __temporary_stack_top$libspace           0x20000a44   Data           0  libspace.o(.bss)



==============================================================================

Memory Map of the image

  Image Entry point : 0x080001ad

  Load Region LR_IROM1 (Base: 0x08000000, Size: 0x0000a870, Max: 0x00200000, ABSOLUTE, COMPRESSED[0x0000a634])

    Execution Region ER_IROM1 (Exec base: 0x08000000, Load base: 0x08000000, Size: 0x0000a5e8, Max: 0x00200000, ABSOLUTE)

    Exec Addr    Load Addr    Size         Type   Attr      Idx    E Section Name        Object

    0x08000000   0x08000000   0x000001ac   Data   RO            3    RESET               startup_stm32f427xx.o
    0x080001ac   0x080001ac   0x00000008   Code   RO         4746  * !!!main             c_w.l(__main.o)
    0x080001b4   0x080001b4   0x00000034   Code   RO         5167    !!!scatter          c_w.l(__scatter.o)
    0x080001e8   0x080001e8   0x0000005a   Code   RO         5165    !!dczerorl2         c_w.l(__dczerorl2.o)
    0x08000242   0x08000242   0x00000002   PAD
    0x08000244   0x08000244   0x0000001c   Code   RO         5169    !!handler_zi        c_w.l(__scatter_zi.o)
    0x08000260   0x08000260   0x00000000   Code   RO         4741    .ARM.Collect$$_printf_percent$$00000000  c_w.l(_printf_percent.o)
    0x08000260   0x08000260   0x00000006   Code   RO         4740    .ARM.Collect$$_printf_percent$$00000003  c_w.l(_printf_f.o)
    0x08000266   0x08000266   0x00000004   Code   RO         4877    .ARM.Collect$$_printf_percent$$00000017  c_w.l(_printf_percent_end.o)
    0x0800026a   0x0800026a   0x00000002   Code   RO         5040    .ARM.Collect$$libinit$$00000000  c_w.l(libinit.o)
    0x0800026c   0x0800026c   0x00000004   Code   RO         5041    .ARM.Collect$$libinit$$00000001  c_w.l(libinit2.o)
    0x08000270   0x08000270   0x00000000   Code   RO         5044    .ARM.Collect$$libinit$$00000004  c_w.l(libinit2.o)
    0x08000270   0x08000270   0x00000000   Code   RO         5047    .ARM.Collect$$libinit$$0000000A  c_w.l(libinit2.o)
    0x08000270   0x08000270   0x00000000   Code   RO         5049    .ARM.Collect$$libinit$$0000000C  c_w.l(libinit2.o)
    0x08000270   0x08000270   0x00000000   Code   RO         5051    .ARM.Collect$$libinit$$0000000E  c_w.l(libinit2.o)
    0x08000270   0x08000270   0x00000006   Code   RO         5052    .ARM.Collect$$libinit$$0000000F  c_w.l(libinit2.o)
    0x08000276   0x08000276   0x00000000   Code   RO         5054    .ARM.Collect$$libinit$$00000011  c_w.l(libinit2.o)
    0x08000276   0x08000276   0x00000000   Code   RO         5056    .ARM.Collect$$libinit$$00000013  c_w.l(libinit2.o)
    0x08000276   0x08000276   0x00000000   Code   RO         5058    .ARM.Collect$$libinit$$00000015  c_w.l(libinit2.o)
    0x08000276   0x08000276   0x0000000a   Code   RO         5059    .ARM.Collect$$libinit$$00000016  c_w.l(libinit2.o)
    0x08000280   0x08000280   0x00000000   Code   RO         5060    .ARM.Collect$$libinit$$00000017  c_w.l(libinit2.o)
    0x08000280   0x08000280   0x00000000   Code   RO         5062    .ARM.Collect$$libinit$$00000019  c_w.l(libinit2.o)
    0x08000280   0x08000280   0x00000000   Code   RO         5064    .ARM.Collect$$libinit$$0000001B  c_w.l(libinit2.o)
    0x08000280   0x08000280   0x00000000   Code   RO         5066    .ARM.Collect$$libinit$$0000001D  c_w.l(libinit2.o)
    0x08000280   0x08000280   0x00000000   Code   RO         5068    .ARM.Collect$$libinit$$0000001F  c_w.l(libinit2.o)
    0x08000280   0x08000280   0x00000000   Code   RO         5070    .ARM.Collect$$libinit$$00000021  c_w.l(libinit2.o)
    0x08000280   0x08000280   0x00000000   Code   RO         5072    .ARM.Collect$$libinit$$00000023  c_w.l(libinit2.o)
    0x08000280   0x08000280   0x00000000   Code   RO         5074    .ARM.Collect$$libinit$$00000025  c_w.l(libinit2.o)
    0x08000280   0x08000280   0x00000000   Code   RO         5078    .ARM.Collect$$libinit$$0000002C  c_w.l(libinit2.o)
    0x08000280   0x08000280   0x00000000   Code   RO         5080    .ARM.Collect$$libinit$$0000002E  c_w.l(libinit2.o)
    0x08000280   0x08000280   0x00000000   Code   RO         5082    .ARM.Collect$$libinit$$00000030  c_w.l(libinit2.o)
    0x08000280   0x08000280   0x00000000   Code   RO         5084    .ARM.Collect$$libinit$$00000032  c_w.l(libinit2.o)
    0x08000280   0x08000280   0x00000002   Code   RO         5085    .ARM.Collect$$libinit$$00000033  c_w.l(libinit2.o)
    0x08000282   0x08000282   0x00000002   Code   RO         5113    .ARM.Collect$$libshutdown$$00000000  c_w.l(libshutdown.o)
    0x08000284   0x08000284   0x00000000   Code   RO         5122    .ARM.Collect$$libshutdown$$00000002  c_w.l(libshutdown2.o)
    0x08000284   0x08000284   0x00000000   Code   RO         5124    .ARM.Collect$$libshutdown$$00000004  c_w.l(libshutdown2.o)
    0x08000284   0x08000284   0x00000000   Code   RO         5126    .ARM.Collect$$libshutdown$$00000006  c_w.l(libshutdown2.o)
    0x08000284   0x08000284   0x00000000   Code   RO         5129    .ARM.Collect$$libshutdown$$00000009  c_w.l(libshutdown2.o)
    0x08000284   0x08000284   0x00000000   Code   RO         5132    .ARM.Collect$$libshutdown$$0000000C  c_w.l(libshutdown2.o)
    0x08000284   0x08000284   0x00000000   Code   RO         5134    .ARM.Collect$$libshutdown$$0000000E  c_w.l(libshutdown2.o)
    0x08000284   0x08000284   0x00000000   Code   RO         5137    .ARM.Collect$$libshutdown$$00000011  c_w.l(libshutdown2.o)
    0x08000284   0x08000284   0x00000002   Code   RO         5138    .ARM.Collect$$libshutdown$$00000012  c_w.l(libshutdown2.o)
    0x08000286   0x08000286   0x00000000   Code   RO         4870    .ARM.Collect$$rtentry$$00000000  c_w.l(__rtentry.o)
    0x08000286   0x08000286   0x00000000   Code   RO         4956    .ARM.Collect$$rtentry$$00000002  c_w.l(__rtentry2.o)
    0x08000286   0x08000286   0x00000006   Code   RO         4968    .ARM.Collect$$rtentry$$00000004  c_w.l(__rtentry4.o)
    0x0800028c   0x0800028c   0x00000000   Code   RO         4958    .ARM.Collect$$rtentry$$00000009  c_w.l(__rtentry2.o)
    0x0800028c   0x0800028c   0x00000004   Code   RO         4959    .ARM.Collect$$rtentry$$0000000A  c_w.l(__rtentry2.o)
    0x08000290   0x08000290   0x00000000   Code   RO         4961    .ARM.Collect$$rtentry$$0000000C  c_w.l(__rtentry2.o)
    0x08000290   0x08000290   0x00000008   Code   RO         4962    .ARM.Collect$$rtentry$$0000000D  c_w.l(__rtentry2.o)
    0x08000298   0x08000298   0x00000002   Code   RO         5086    .ARM.Collect$$rtexit$$00000000  c_w.l(rtexit.o)
    0x0800029a   0x0800029a   0x00000000   Code   RO         5093    .ARM.Collect$$rtexit$$00000002  c_w.l(rtexit2.o)
    0x0800029a   0x0800029a   0x00000004   Code   RO         5094    .ARM.Collect$$rtexit$$00000003  c_w.l(rtexit2.o)
    0x0800029e   0x0800029e   0x00000006   Code   RO         5095    .ARM.Collect$$rtexit$$00000004  c_w.l(rtexit2.o)
    0x080002a4   0x080002a4   0x00000040   Code   RO            4    .text               startup_stm32f427xx.o
    0x080002e4   0x080002e4   0x00000002   Code   RO         4712    .text               c_w.l(use_no_semi_2.o)
    0x080002e6   0x080002e6   0x00000002   PAD
    0x080002e8   0x080002e8   0x00000018   Code   RO         4716    .text               c_w.l(noretval__2printf.o)
    0x08000300   0x08000300   0x00000068   Code   RO         4718    .text               c_w.l(__printf.o)
    0x08000368   0x08000368   0x00000064   Code   RO         4742    .text               c_w.l(rt_memcpy_w.o)
    0x080003cc   0x080003cc   0x00000006   Code   RO         4744    .text               c_w.l(heapauxi.o)
    0x080003d2   0x080003d2   0x00000002   Code   RO         4868    .text               c_w.l(use_no_semi.o)
    0x080003d4   0x080003d4   0x00000016   Code   RO         4871    .text               c_w.l(_rserrno.o)
    0x080003ea   0x080003ea   0x0000041e   Code   RO         4873    .text               c_w.l(_printf_fp_dec.o)
    0x08000808   0x08000808   0x00000024   Code   RO         4875    .text               c_w.l(_printf_char_file.o)
    0x0800082c   0x0800082c   0x00000008   Code   RO         4973    .text               c_w.l(rt_locale_intlibspace.o)
    0x08000834   0x08000834   0x00000008   Code   RO         4978    .text               c_w.l(rt_errno_addr_intlibspace.o)
    0x0800083c   0x0800083c   0x0000008a   Code   RO         4980    .text               c_w.l(lludiv10.o)
    0x080008c6   0x080008c6   0x00000002   PAD
    0x080008c8   0x080008c8   0x00000030   Code   RO         4982    .text               c_w.l(_printf_char_common.o)
    0x080008f8   0x080008f8   0x00000080   Code   RO         4984    .text               c_w.l(_printf_fp_infnan.o)
    0x08000978   0x08000978   0x000000e4   Code   RO         4986    .text               c_w.l(bigflt0.o)
    0x08000a5c   0x08000a5c   0x00000008   Code   RO         5011    .text               c_w.l(ferror.o)
    0x08000a64   0x08000a64   0x00000008   Code   RO         5024    .text               c_w.l(libspace.o)
    0x08000a6c   0x08000a6c   0x0000004a   Code   RO         5027    .text               c_w.l(sys_stackheap_outer.o)
    0x08000ab6   0x08000ab6   0x00000012   Code   RO         5031    .text               c_w.l(exit.o)
    0x08000ac8   0x08000ac8   0x00000080   Code   RO         5033    .text               c_w.l(strcmpv7m.o)
    0x08000b48   0x08000b48   0x0000003e   Code   RO         4989    CL$$btod_d2e        c_w.l(btod.o)
    0x08000b86   0x08000b86   0x00000046   Code   RO         4991    CL$$btod_d2e_denorm_low  c_w.l(btod.o)
    0x08000bcc   0x08000bcc   0x00000060   Code   RO         4990    CL$$btod_d2e_norm_op1  c_w.l(btod.o)
    0x08000c2c   0x08000c2c   0x00000338   Code   RO         4999    CL$$btod_div_common  c_w.l(btod.o)
    0x08000f64   0x08000f64   0x000000dc   Code   RO         4996    CL$$btod_e2e        c_w.l(btod.o)
    0x08001040   0x08001040   0x0000002a   Code   RO         4993    CL$$btod_ediv       c_w.l(btod.o)
    0x0800106a   0x0800106a   0x0000002a   Code   RO         4992    CL$$btod_emul       c_w.l(btod.o)
    0x08001094   0x08001094   0x00000244   Code   RO         4998    CL$$btod_mult_common  c_w.l(btod.o)
    0x080012d8   0x080012d8   0x00000158   Code   RO         3275    i.Angle_deal        can1.o
    0x08001430   0x08001430   0x00000360   Code   RO         4201    i.Astrict_Acc       higher_class.o
    0x08001790   0x08001790   0x00000004   Code   RO         4620    i.BusFault_Handler  stm32f4xx_it.o
    0x08001794   0x08001794   0x00000100   Code   RO         3276    i.CAN1_Configuration  can1.o
    0x08001894   0x08001894   0x000002bc   Code   RO         3277    i.CAN1_RX0_IRQHandler  can1.o
    0x08001b50   0x08001b50   0x0000008c   Code   RO         3278    i.CAN1_SendCommand_chassis  can1.o
    0x08001bdc   0x08001bdc   0x00000070   Code   RO         3279    i.CAN1_Send_Msg_gimbal  can1.o
    0x08001c4c   0x08001c4c   0x00000104   Code   RO         3801    i.CAN2_Configuration  can2.o
    0x08001d50   0x08001d50   0x00000100   Code   RO         3802    i.CAN2_RX0_IRQHandler  can2.o
    0x08001e50   0x08001e50   0x00000038   Code   RO          469    i.CAN_ClearFlag     stm32f4xx_can.o
    0x08001e88   0x08001e88   0x000000a8   Code   RO          470    i.CAN_ClearITPendingBit  stm32f4xx_can.o
    0x08001f30   0x08001f30   0x00000038   Code   RO          472    i.CAN_DeInit        stm32f4xx_can.o
    0x08001f68   0x08001f68   0x00000108   Code   RO          474    i.CAN_FilterInit    stm32f4xx_can.o
    0x08002070   0x08002070   0x00000120   Code   RO          476    i.CAN_GetITStatus   stm32f4xx_can.o
    0x08002190   0x08002190   0x00000012   Code   RO          480    i.CAN_ITConfig      stm32f4xx_can.o
    0x080021a2   0x080021a2   0x00000114   Code   RO          481    i.CAN_Init          stm32f4xx_can.o
    0x080022b6   0x080022b6   0x000000f0   Code   RO          484    i.CAN_Receive       stm32f4xx_can.o
    0x080023a6   0x080023a6   0x00000020   Code   RO          487    i.CAN_StructInit    stm32f4xx_can.o
    0x080023c6   0x080023c6   0x00000126   Code   RO          489    i.CAN_Transmit      stm32f4xx_can.o
    0x080024ec   0x080024ec   0x000000a0   Code   RO          490    i.CAN_TransmitStatus  stm32f4xx_can.o
    0x0800258c   0x0800258c   0x0000028c   Code   RO         4456    i.Chassis_AutoFollow  shoot.o
    0x08002818   0x08002818   0x00000084   Code   RO         4326    i.Chassis_Task      user_api.o
    0x0800289c   0x0800289c   0x00000012   Code   RO          492    i.CheckITStatus     stm32f4xx_can.o
    0x080028ae   0x080028ae   0x00000002   PAD
    0x080028b0   0x080028b0   0x00000118   Code   RO         3706    i.Comm_umpire_Init  comm_umpire.o
    0x080029c8   0x080029c8   0x00000030   Code   RO         3623    i.DMA2_Stream5_IRQHandler  remotecontrol.o
    0x080029f8   0x080029f8   0x00000020   Code   RO         3707    i.DMA2_Stream7_IRQHandler  comm_umpire.o
    0x08002a18   0x08002a18   0x00000034   Code   RO          675    i.DMA_ClearFlag     stm32f4xx_dma.o
    0x08002a4c   0x08002a4c   0x00000034   Code   RO          676    i.DMA_ClearITPendingBit  stm32f4xx_dma.o
    0x08002a80   0x08002a80   0x00000016   Code   RO          677    i.DMA_Cmd           stm32f4xx_dma.o
    0x08002a96   0x08002a96   0x00000002   PAD
    0x08002a98   0x08002a98   0x00000158   Code   RO          678    i.DMA_DeInit        stm32f4xx_dma.o
    0x08002bf0   0x08002bf0   0x00000008   Code   RO          683    i.DMA_GetCurrDataCounter  stm32f4xx_dma.o
    0x08002bf8   0x08002bf8   0x00000044   Code   RO          686    i.DMA_GetFlagStatus  stm32f4xx_dma.o
    0x08002c3c   0x08002c3c   0x0000003a   Code   RO          688    i.DMA_ITConfig      stm32f4xx_dma.o
    0x08002c76   0x08002c76   0x00000002   PAD
    0x08002c78   0x08002c78   0x00000058   Code   RO          689    i.DMA_Init          stm32f4xx_dma.o
    0x08002cd0   0x08002cd0   0x00000004   Code   RO          692    i.DMA_SetCurrDataCounter  stm32f4xx_dma.o
    0x08002cd4   0x08002cd4   0x000001ac   Code   RO         3708    i.DealDataPack      comm_umpire.o
    0x08002e80   0x08002e80   0x00000002   Code   RO         4621    i.DebugMon_Handler  stm32f4xx_it.o
    0x08002e82   0x08002e82   0x00000002   PAD
    0x08002e84   0x08002e84   0x0000010c   Code   RO         4457    i.Encoder_angle_conversion  shoot.o
    0x08002f90   0x08002f90   0x0000002c   Code   RO         3624    i.FailSafe_Check    remotecontrol.o
    0x08002fbc   0x08002fbc   0x00000090   Code   RO         1120    i.GPIO_Init         stm32f4xx_gpio.o
    0x0800304c   0x0800304c   0x00000046   Code   RO         1121    i.GPIO_PinAFConfig  stm32f4xx_gpio.o
    0x08003092   0x08003092   0x00000004   Code   RO         1127    i.GPIO_ResetBits    stm32f4xx_gpio.o
    0x08003096   0x08003096   0x00000004   Code   RO         1128    i.GPIO_SetBits      stm32f4xx_gpio.o
    0x0800309a   0x0800309a   0x00000002   PAD
    0x0800309c   0x0800309c   0x0000002c   Code   RO         3887    i.Get_CRC16_Check_Sum  crc.o
    0x080030c8   0x080030c8   0x00000024   Code   RO         3888    i.Get_CRC8_Check_Sum  crc.o
    0x080030ec   0x080030ec   0x000004e0   Code   RO         4327    i.Get_Ctrl_Data     user_api.o
    0x080035cc   0x080035cc   0x000000ec   Code   RO         3625    i.Get_RC_Data       remotecontrol.o
    0x080036b8   0x080036b8   0x000000e8   Code   RO         3710    i.Get_UmpireData    comm_umpire.o
    0x080037a0   0x080037a0   0x00000184   Code   RO         4458    i.Gimbal_Ctrl       shoot.o
    0x08003924   0x08003924   0x00000014   Code   RO         4459    i.Gimbal_Ctrl_init  shoot.o
    0x08003938   0x08003938   0x00000004   Code   RO         4622    i.HardFault_Handler  stm32f4xx_it.o
    0x0800393c   0x0800393c   0x00000498   Code   RO         4270    i.IMUSO3Thread      imu.o
    0x08003dd4   0x08003dd4   0x0000005c   Code   RO         3474    i.IMU_Init          mpu6500.o
    0x08003e30   0x08003e30   0x00000044   Code   RO         4271    i.IMU_Temp_Ctrl     imu.o
    0x08003e74   0x08003e74   0x000001ac   Code   RO         4039    i.Inverse_Kinematic_Ctrl  ctrl_chassis.o
    0x08004020   0x08004020   0x0000011a   Code   RO         3626    i.KeyDataProcess    remotecontrol.o
    0x0800413a   0x0800413a   0x00000002   PAD
    0x0800413c   0x0800413c   0x00000060   Code   RO         3349    i.LED_Init          led.o
    0x0800419c   0x0800419c   0x000000e0   Code   RO         4102    i.LPF2pApply_1      filter.o
    0x0800427c   0x0800427c   0x000000e0   Code   RO         4103    i.LPF2pApply_2      filter.o
    0x0800435c   0x0800435c   0x000000e0   Code   RO         4104    i.LPF2pApply_3      filter.o
    0x0800443c   0x0800443c   0x000000e0   Code   RO         4105    i.LPF2pApply_4      filter.o
    0x0800451c   0x0800451c   0x000000e0   Code   RO         4106    i.LPF2pApply_5      filter.o
    0x080045fc   0x080045fc   0x000000e0   Code   RO         4107    i.LPF2pApply_6      filter.o
    0x080046dc   0x080046dc   0x00000110   Code   RO         4108    i.LPF2pSetCutoffFreq_1  filter.o
    0x080047ec   0x080047ec   0x00000110   Code   RO         4109    i.LPF2pSetCutoffFreq_2  filter.o
    0x080048fc   0x080048fc   0x00000110   Code   RO         4110    i.LPF2pSetCutoffFreq_3  filter.o
    0x08004a0c   0x08004a0c   0x00000110   Code   RO         4111    i.LPF2pSetCutoffFreq_4  filter.o
    0x08004b1c   0x08004b1c   0x00000110   Code   RO         4112    i.LPF2pSetCutoffFreq_5  filter.o
    0x08004c2c   0x08004c2c   0x00000110   Code   RO         4113    i.LPF2pSetCutoffFreq_6  filter.o
    0x08004d3c   0x08004d3c   0x00000038   Code   RO         3350    i.Laser_Init        led.o
    0x08004d74   0x08004d74   0x0000004c   Code   RO         3478    i.MPU6050AccRead    mpu6500.o
    0x08004dc0   0x08004dc0   0x0000004c   Code   RO         3479    i.MPU6050GyroRead   mpu6500.o
    0x08004e0c   0x08004e0c   0x00000054   Code   RO         3480    i.MPU6500_Init      mpu6500.o
    0x08004e60   0x08004e60   0x00000044   Code   RO         3481    i.MPU6500_Read_Reg  mpu6500.o
    0x08004ea4   0x08004ea4   0x00000040   Code   RO         3483    i.MPU6500_Write_Reg  mpu6500.o
    0x08004ee4   0x08004ee4   0x00000090   Code   RO         4202    i.Matrix_Translate  higher_class.o
    0x08004f74   0x08004f74   0x00000004   Code   RO         4623    i.MemManage_Handler  stm32f4xx_it.o
    0x08004f78   0x08004f78   0x00000002   Code   RO         4624    i.NMI_Handler       stm32f4xx_it.o
    0x08004f7a   0x08004f7a   0x00000002   PAD
    0x08004f7c   0x08004f7c   0x00000078   Code   RO          156    i.NVIC_Init         misc.o
    0x08004ff4   0x08004ff4   0x00000014   Code   RO          157    i.NVIC_PriorityGroupConfig  misc.o
    0x08005008   0x08005008   0x000002d4   Code   RO         4272    i.NonlinearSO3AHRSinit  imu.o
    0x080052dc   0x080052dc   0x00000770   Code   RO         4273    i.NonlinearSO3AHRSupdate  imu.o
    0x08005a4c   0x08005a4c   0x0000019a   Code   RO         4391    i.PID_Control       pid.o
    0x08005be6   0x08005be6   0x00000002   PAD
    0x08005be8   0x08005be8   0x0000003c   Code   RO         3575    i.PWM_Write         pwm.o
    0x08005c24   0x08005c24   0x00000002   Code   RO         4625    i.PendSV_Handler    stm32f4xx_it.o
    0x08005c26   0x08005c26   0x00000002   PAD
    0x08005c28   0x08005c28   0x00000060   Code   RO         4460    i.Pitch_pid         shoot.o
    0x08005c88   0x08005c88   0x00000020   Code   RO         1563    i.RCC_AHB1PeriphClockCmd  stm32f4xx_rcc.o
    0x08005ca8   0x08005ca8   0x00000020   Code   RO         1572    i.RCC_APB1PeriphClockCmd  stm32f4xx_rcc.o
    0x08005cc8   0x08005cc8   0x00000020   Code   RO         1574    i.RCC_APB1PeriphResetCmd  stm32f4xx_rcc.o
    0x08005ce8   0x08005ce8   0x00000020   Code   RO         1575    i.RCC_APB2PeriphClockCmd  stm32f4xx_rcc.o
    0x08005d08   0x08005d08   0x00000020   Code   RO         1577    i.RCC_APB2PeriphResetCmd  stm32f4xx_rcc.o
    0x08005d28   0x08005d28   0x000000e8   Code   RO         1584    i.RCC_GetClocksFreq  stm32f4xx_rcc.o
    0x08005e10   0x08005e10   0x00000130   Code   RO         3627    i.RC_Init           remotecontrol.o
    0x08005f40   0x08005f40   0x00000170   Code   RO         3485    i.ReadIMUSensorHandle  mpu6500.o
    0x080060b0   0x080060b0   0x000000e0   Code   RO         3674    i.SPI5_Init         spi.o
    0x08006190   0x08006190   0x00000058   Code   RO         3675    i.SPI5_ReadWriteByte  spi.o
    0x080061e8   0x080061e8   0x00000018   Code   RO         2159    i.SPI_Cmd           stm32f4xx_spi.o
    0x08006200   0x08006200   0x00000012   Code   RO         2167    i.SPI_I2S_GetFlagStatus  stm32f4xx_spi.o
    0x08006212   0x08006212   0x00000006   Code   RO         2170    i.SPI_I2S_ReceiveData  stm32f4xx_spi.o
    0x08006218   0x08006218   0x00000004   Code   RO         2171    i.SPI_I2S_SendData  stm32f4xx_spi.o
    0x0800621c   0x0800621c   0x0000003c   Code   RO         2172    i.SPI_Init          stm32f4xx_spi.o
    0x08006258   0x08006258   0x00000002   Code   RO         4626    i.SVC_Handler       stm32f4xx_it.o
    0x0800625a   0x0800625a   0x00000002   PAD
    0x0800625c   0x0800625c   0x00000120   Code   RO           12    i.SetSysClock       system_stm32f4xx.o
    0x0800637c   0x0800637c   0x00000170   Code   RO         4328    i.Shoot_Ctrl        user_api.o
    0x080064ec   0x080064ec   0x00000074   Code   RO         4329    i.Stop_Chassis_Task  user_api.o
    0x08006560   0x08006560   0x00000010   Code   RO         4627    i.SysTick_Handler   stm32f4xx_it.o
    0x08006570   0x08006570   0x00000068   Code   RO           14    i.SystemInit        system_stm32f4xx.o
    0x080065d8   0x080065d8   0x000000c4   Code   RO         3578    i.TIM3_PWM_Init     pwm.o
    0x0800669c   0x0800669c   0x00000100   Code   RO         3840    i.TIM4_IRQHandler   timer.o
    0x0800679c   0x0800679c   0x00000064   Code   RO         3841    i.TIM4_Int_Init     timer.o
    0x08006800   0x08006800   0x00000018   Code   RO         2377    i.TIM_ARRPreloadConfig  stm32f4xx_tim.o
    0x08006818   0x08006818   0x00000006   Code   RO         2384    i.TIM_ClearITPendingBit  stm32f4xx_tim.o
    0x0800681e   0x0800681e   0x00000018   Code   RO         2389    i.TIM_Cmd           stm32f4xx_tim.o
    0x08006836   0x08006836   0x0000001e   Code   RO         2391    i.TIM_CtrlPWMOutputs  stm32f4xx_tim.o
    0x08006854   0x08006854   0x00000190   Code   RO         2394    i.TIM_DeInit        stm32f4xx_tim.o
    0x080069e4   0x080069e4   0x00000022   Code   RO         2410    i.TIM_GetITStatus   stm32f4xx_tim.o
    0x08006a06   0x08006a06   0x00000012   Code   RO         2414    i.TIM_ITConfig      stm32f4xx_tim.o
    0x08006a18   0x08006a18   0x0000007c   Code   RO         2418    i.TIM_OC1Init       stm32f4xx_tim.o
    0x08006a94   0x08006a94   0x00000012   Code   RO         2421    i.TIM_OC1PreloadConfig  stm32f4xx_tim.o
    0x08006aa6   0x08006aa6   0x00000002   PAD
    0x08006aa8   0x08006aa8   0x000000a4   Code   RO         2423    i.TIM_OC2Init       stm32f4xx_tim.o
    0x08006b4c   0x08006b4c   0x0000001a   Code   RO         2426    i.TIM_OC2PreloadConfig  stm32f4xx_tim.o
    0x08006b66   0x08006b66   0x00000002   PAD
    0x08006b68   0x08006b68   0x00000078   Code   RO         2433    i.TIM_OC4Init       stm32f4xx_tim.o
    0x08006be0   0x08006be0   0x0000001a   Code   RO         2435    i.TIM_OC4PreloadConfig  stm32f4xx_tim.o
    0x08006bfa   0x08006bfa   0x00000002   PAD
    0x08006bfc   0x08006bfc   0x00000084   Code   RO         2461    i.TIM_TimeBaseInit  stm32f4xx_tim.o
    0x08006c80   0x08006c80   0x00000234   Code   RO         4396    i.Total_PID_Init    pid.o
    0x08006eb4   0x08006eb4   0x000000e4   Code   RO         4461    i.Twist             shoot.o
    0x08006f98   0x08006f98   0x00000088   Code   RO         3193    i.USART3_IRQHandler  usart.o
    0x08007020   0x08007020   0x0000006c   Code   RO         3713    i.USART6_IRQHandler  comm_umpire.o
    0x0800708c   0x0800708c   0x00000018   Code   RO         2939    i.USART_Cmd         stm32f4xx_usart.o
    0x080070a4   0x080070a4   0x00000012   Code   RO         2940    i.USART_DMACmd      stm32f4xx_usart.o
    0x080070b6   0x080070b6   0x00000002   PAD
    0x080070b8   0x080070b8   0x000000f0   Code   RO         2941    i.USART_DeInit      stm32f4xx_usart.o
    0x080071a8   0x080071a8   0x00000054   Code   RO         2943    i.USART_GetITStatus  stm32f4xx_usart.o
    0x080071fc   0x080071fc   0x0000004a   Code   RO         2945    i.USART_ITConfig    stm32f4xx_usart.o
    0x08007246   0x08007246   0x00000002   PAD
    0x08007248   0x08007248   0x000000d4   Code   RO         2946    i.USART_Init        stm32f4xx_usart.o
    0x0800731c   0x0800731c   0x0000000a   Code   RO         2953    i.USART_ReceiveData  stm32f4xx_usart.o
    0x08007326   0x08007326   0x00000004   Code   RO         4628    i.UsageFault_Handler  stm32f4xx_it.o
    0x0800732a   0x0800732a   0x00000002   PAD
    0x0800732c   0x0800732c   0x00000038   Code   RO         3889    i.Verify_CRC16_Check_Sum  crc.o
    0x08007364   0x08007364   0x0000002e   Code   RO         3890    i.Verify_CRC8_Check_Sum  crc.o
    0x08007392   0x08007392   0x00000002   PAD
    0x08007394   0x08007394   0x00000200   Code   RO         4462    i.Yaw_angle_pid     shoot.o
    0x08007594   0x08007594   0x00000030   Code   RO         5020    i.__ARM_fpclassify  m_wm.l(fpclassify.o)
    0x080075c4   0x080075c4   0x00000026   Code   RO         4923    i.__ARM_fpclassifyf  m_wm.l(fpclassifyf.o)
    0x080075ea   0x080075ea   0x00000014   Code   RO         4114    i.__ARM_isinff      filter.o
    0x080075fe   0x080075fe   0x0000000e   Code   RO         4115    i.__ARM_isnanf      filter.o
    0x0800760c   0x0800760c   0x0000012c   Code   RO         4778    i.__hardfp_asinf    m_wm.l(asinf.o)
    0x08007738   0x08007738   0x000002d8   Code   RO         4895    i.__hardfp_atan     m_wm.l(atan.o)
    0x08007a10   0x08007a10   0x00000200   Code   RO         4790    i.__hardfp_atan2    m_wm.l(atan2.o)
    0x08007c10   0x08007c10   0x000002ac   Code   RO         4802    i.__hardfp_atan2f   m_wm.l(atan2f.o)
    0x08007ebc   0x08007ebc   0x00000150   Code   RO         4814    i.__hardfp_cosf     m_wm.l(cosf.o)
    0x0800800c   0x0800800c   0x00000014   Code   RO         4826    i.__hardfp_fabs     m_wm.l(fabs.o)
    0x08008020   0x08008020   0x00000190   Code   RO         4832    i.__hardfp_sinf     m_wm.l(sinf.o)
    0x080081b0   0x080081b0   0x0000007a   Code   RO         4844    i.__hardfp_sqrt     m_wm.l(sqrt.o)
    0x0800822a   0x0800822a   0x00000002   PAD
    0x0800822c   0x0800822c   0x0000017c   Code   RO         4856    i.__hardfp_tanf     m_wm.l(tanf.o)
    0x080083a8   0x080083a8   0x000000f8   Code   RO         5022    i.__kernel_poly     m_wm.l(poly.o)
    0x080084a0   0x080084a0   0x00000014   Code   RO         4910    i.__mathlib_dbl_infnan  m_wm.l(dunder.o)
    0x080084b4   0x080084b4   0x00000014   Code   RO         4911    i.__mathlib_dbl_infnan2  m_wm.l(dunder.o)
    0x080084c8   0x080084c8   0x00000020   Code   RO         4915    i.__mathlib_dbl_underflow  m_wm.l(dunder.o)
    0x080084e8   0x080084e8   0x00000006   Code   RO         4926    i.__mathlib_flt_infnan  m_wm.l(funder.o)
    0x080084ee   0x080084ee   0x00000006   Code   RO         4927    i.__mathlib_flt_infnan2  m_wm.l(funder.o)
    0x080084f4   0x080084f4   0x00000010   Code   RO         4928    i.__mathlib_flt_invalid  m_wm.l(funder.o)
    0x08008504   0x08008504   0x00000010   Code   RO         4931    i.__mathlib_flt_underflow  m_wm.l(funder.o)
    0x08008514   0x08008514   0x00000154   Code   RO         4940    i.__mathlib_rredf2  m_wm.l(rredf.o)
    0x08008668   0x08008668   0x00000004   Code   RO         3194    i._sys_exit         usart.o
    0x0800866c   0x0800866c   0x00000010   Code   RO         4897    i.atan              m_wm.l(atan.o)
    0x0800867c   0x0800867c   0x00000020   Code   RO         4629    i.cycleCounterInit  stm32f4xx_it.o
    0x0800869c   0x0800869c   0x00000022   Code   RO         3125    i.delay_ms          delay.o
    0x080086be   0x080086be   0x00000002   PAD
    0x080086c0   0x080086c0   0x00000044   Code   RO         3778    i.digital_init      digital.o
    0x08008704   0x08008704   0x0000005c   Code   RO         4040    i.encoders_err      ctrl_chassis.o
    0x08008760   0x08008760   0x00000050   Code   RO         4463    i.encoders_err_shoot  shoot.o
    0x080087b0   0x080087b0   0x00000018   Code   RO         4828    i.fabs              m_wm.l(fabs.o)
    0x080087c8   0x080087c8   0x0000001c   Code   RO         3195    i.fputc             usart.o
    0x080087e4   0x080087e4   0x0000000e   Code   RO         3933    i.fric1_on          fric.o
    0x080087f2   0x080087f2   0x0000000e   Code   RO         3934    i.fric2_on          fric.o
    0x08008800   0x08008800   0x00000144   Code   RO         3935    i.fric_PWM_configuration  fric.o
    0x08008944   0x08008944   0x00000018   Code   RO         3936    i.fric_off          fric.o
    0x0800895c   0x0800895c   0x0000006c   Code   RO         4274    i.invSqrt           imu.o
    0x080089c8   0x080089c8   0x000000a0   Code   RO         3280    i.kalman            can1.o
    0x08008a68   0x08008a68   0x00000014   Code   RO         3351    i.laser_off         led.o
    0x08008a7c   0x08008a7c   0x00000014   Code   RO         3352    i.laser_on          led.o
    0x08008a90   0x08008a90   0x0000032c   Code   RO         4561    i.main              main.o
    0x08008dbc   0x08008dbc   0x00000044   Code   RO         4630    i.micros            stm32f4xx_it.o
    0x08008e00   0x08008e00   0x00000210   Code   RO         4041    i.motor_angle_ctrl  ctrl_chassis.o
    0x08009010   0x08009010   0x00000244   Code   RO         4464    i.motor_angle_pid   shoot.o
    0x08009254   0x08009254   0x00000048   Code   RO         3998    i.power_ctrl_configuration  power_ctrl.o
    0x0800929c   0x0800929c   0x00000020   Code   RO         3999    i.power_ctrl_off    power_ctrl.o
    0x080092bc   0x080092bc   0x00000016   Code   RO         4465    i.shoot_control_loop  shoot.o
    0x080092d2   0x080092d2   0x0000003e   Code   RO         4945    i.sqrtf             m_wm.l(sqrtf.o)
    0x08009310   0x08009310   0x000000ac   Code   RO         3196    i.usart_init        usart.o
    0x080093bc   0x080093bc   0x00000064   Code   RO         4043    i.virtual_encoders  ctrl_chassis.o
    0x08009420   0x08009420   0x00000044   Code   RO         4468    i.virtual_encoders_shoot  shoot.o
    0x08009464   0x08009464   0x0000002c   Code   RO         5016    locale$$code        c_w.l(lc_numeric_c.o)
    0x08009490   0x08009490   0x00000018   Code   RO         4878    x$fpl$basic         fz_wm.l(basic.o)
    0x080094a8   0x080094a8   0x00000062   Code   RO         4748    x$fpl$d2f           fz_wm.l(d2f.o)
    0x0800950a   0x0800950a   0x00000002   PAD
    0x0800950c   0x0800950c   0x00000150   Code   RO         4750    x$fpl$dadd          fz_wm.l(daddsub_clz.o)
    0x0800965c   0x0800965c   0x00000018   Code   RO         4880    x$fpl$dcmpinf       fz_wm.l(dcmpi.o)
    0x08009674   0x08009674   0x000002b0   Code   RO         4757    x$fpl$ddiv          fz_wm.l(ddiv.o)
    0x08009924   0x08009924   0x00000078   Code   RO         4882    x$fpl$deqf          fz_wm.l(deqf.o)
    0x0800999c   0x0800999c   0x0000005e   Code   RO         4760    x$fpl$dfix          fz_wm.l(dfix.o)
    0x080099fa   0x080099fa   0x0000002e   Code   RO         4765    x$fpl$dflt          fz_wm.l(dflt_clz.o)
    0x08009a28   0x08009a28   0x00000078   Code   RO         4770    x$fpl$dleqf         fz_wm.l(dleqf.o)
    0x08009aa0   0x08009aa0   0x00000154   Code   RO         4772    x$fpl$dmul          fz_wm.l(dmul.o)
    0x08009bf4   0x08009bf4   0x0000009c   Code   RO         4884    x$fpl$dnaninf       fz_wm.l(dnaninf.o)
    0x08009c90   0x08009c90   0x0000000c   Code   RO         4886    x$fpl$dretinf       fz_wm.l(dretinf.o)
    0x08009c9c   0x08009c9c   0x00000016   Code   RO         4751    x$fpl$drsb          fz_wm.l(daddsub_clz.o)
    0x08009cb2   0x08009cb2   0x00000002   PAD
    0x08009cb4   0x08009cb4   0x00000198   Code   RO         4888    x$fpl$dsqrt         fz_wm.l(dsqrt_umaal.o)
    0x08009e4c   0x08009e4c   0x000001d4   Code   RO         4752    x$fpl$dsub          fz_wm.l(daddsub_clz.o)
    0x0800a020   0x0800a020   0x00000056   Code   RO         4774    x$fpl$f2d           fz_wm.l(f2d.o)
    0x0800a076   0x0800a076   0x0000008c   Code   RO         4890    x$fpl$fnaninf       fz_wm.l(fnaninf.o)
    0x0800a102   0x0800a102   0x0000000a   Code   RO         5090    x$fpl$fpinit        fz_wm.l(fpinit.o)
    0x0800a10c   0x0800a10c   0x0000000a   Code   RO         4892    x$fpl$fretinf       fz_wm.l(fretinf.o)
    0x0800a116   0x0800a116   0x00000004   Code   RO         4776    x$fpl$printf1       fz_wm.l(printf1.o)
    0x0800a11a   0x0800a11a   0x00000000   Code   RO         4894    x$fpl$usenofp       fz_wm.l(usenofp.o)
    0x0800a11a   0x0800a11a   0x00000002   PAD
    0x0800a11c   0x0800a11c   0x00000014   Data   RO         3487    .constdata          mpu6500.o
    0x0800a130   0x0800a130   0x00000302   Data   RO         3891    .constdata          crc.o
    0x0800a432   0x0800a432   0x00000002   PAD
    0x0800a434   0x0800a434   0x00000024   Data   RO         4276    .constdata          imu.o
    0x0800a458   0x0800a458   0x00000098   Data   RO         4898    .constdata          m_wm.l(atan.o)
    0x0800a4f0   0x0800a4f0   0x00000008   Data   RO         4939    .constdata          m_wm.l(qnan.o)
    0x0800a4f8   0x0800a4f8   0x00000020   Data   RO         4941    .constdata          m_wm.l(rredf.o)
    0x0800a518   0x0800a518   0x00000094   Data   RO         4987    .constdata          c_w.l(bigflt0.o)
    0x0800a5ac   0x0800a5ac   0x00000020   Data   RO         5163    Region$$Table       anon$$obj.o
    0x0800a5cc   0x0800a5cc   0x0000001c   Data   RO         5015    locale$$data        c_w.l(lc_numeric_c.o)


    Execution Region RW_IRAM1 (Exec base: 0x20000000, Load base: 0x0800a5e8, Size: 0x00001e48, Max: 0x00030000, ABSOLUTE, COMPRESSED[0x0000004c])

    Exec Addr    Load Addr    Size         Type   Attr      Idx    E Section Name        Object

    0x20000000   COMPRESSED   0x00000014   Data   RW           15    .data               system_stm32f4xx.o
    0x20000014   COMPRESSED   0x00000010   Data   RW         1616    .data               stm32f4xx_rcc.o
    0x20000024   COMPRESSED   0x00000006   Data   RW         3198    .data               usart.o
    0x2000002a   COMPRESSED   0x00000002   PAD
    0x2000002c   COMPRESSED   0x00000038   Data   RW         3282    .data               can1.o
    0x20000064   COMPRESSED   0x00000006   Data   RW         3488    .data               mpu6500.o
    0x2000006a   COMPRESSED   0x00000001   Data   RW         3629    .data               remotecontrol.o
    0x2000006b   COMPRESSED   0x00000016   Data   RW         3715    .data               comm_umpire.o
    0x20000081   COMPRESSED   0x00000008   Data   RW         3805    .data               can2.o
    0x20000089   COMPRESSED   0x0000000c   Data   RW         3842    .data               timer.o
    0x20000095   COMPRESSED   0x00000001   PAD
    0x20000096   COMPRESSED   0x00000002   Data   RW         3892    .data               crc.o
    0x20000098   COMPRESSED   0x00000008   Data   RW         4045    .data               ctrl_chassis.o
    0x200000a0   COMPRESSED   0x000000c0   Data   RW         4116    .data               filter.o
    0x20000160   COMPRESSED   0x00000018   Data   RW         4204    .data               higher_class.o
    0x20000178   COMPRESSED   0x00000056   Data   RW         4277    .data               imu.o
    0x200001ce   COMPRESSED   0x00000002   PAD
    0x200001d0   COMPRESSED   0x0000005a   Data   RW         4331    .data               user_api.o
    0x2000022a   COMPRESSED   0x00000002   PAD
    0x2000022c   COMPRESSED   0x0000004c   Data   RW         4470    .data               shoot.o
    0x20000278   COMPRESSED   0x00000008   Data   RW         4562    .data               main.o
    0x20000280   COMPRESSED   0x00000008   Data   RW         4632    .data               stm32f4xx_it.o
    0x20000288        -       0x000000c8   Zero   RW         3197    .bss                usart.o
    0x20000350        -       0x0000008c   Zero   RW         3281    .bss                can1.o
    0x200003dc        -       0x000000c4   Zero   RW         3486    .bss                mpu6500.o
    0x200004a0        -       0x0000003d   Zero   RW         3628    .bss                remotecontrol.o
    0x200004dd        -       0x000000ec   Zero   RW         3714    .bss                comm_umpire.o
    0x200005c9   COMPRESSED   0x00000003   PAD
    0x200005cc        -       0x0000000c   Zero   RW         3804    .bss                can2.o
    0x200005d8        -       0x00000030   Zero   RW         4044    .bss                ctrl_chassis.o
    0x20000608        -       0x00000018   Zero   RW         4275    .bss                imu.o
    0x20000620        -       0x00000024   Zero   RW         4330    .bss                user_api.o
    0x20000644        -       0x000003a0   Zero   RW         4397    .bss                pid.o
    0x200009e4        -       0x00000060   Zero   RW         5025    .bss                c_w.l(libspace.o)
    0x20000a44   COMPRESSED   0x00000004   PAD
    0x20000a48        -       0x00001000   Zero   RW            2    HEAP                startup_stm32f427xx.o
    0x20001a48        -       0x00000400   Zero   RW            1    STACK               startup_stm32f427xx.o


==============================================================================

Image component sizes


      Code (inc. data)   RO Data    RW Data    ZI Data      Debug   Object Name

      1712         68          0         56        140       6617   can1.o
       516         40          0          8         12       2390   can2.o
      1080        110          0         22        236       5855   comm_umpire.o
       182         18        770          2          0       3549   crc.o
      1148         78          0          8         48       4721   ctrl_chassis.o
        34          0          0          0          0        543   delay.o
        68          4          0          0          0        531   digital.o
      3010        444          0        192          0      16459   filter.o
       376         18          0          0          0       2242   fric.o
      1008         66          0         24          0       2144   higher_class.o
      3980        284         36         86         24       6681   imu.o
       192         26          0          0          0       9871   led.o
       812         66          0          8          0      27699   main.o
       140         24          0          0          0     245435   misc.o
       828         84         20          6        196       9691   mpu6500.o
       974         78          0          0        928       3376   pid.o
       104         12          0          0          0       1200   power_ctrl.o
       256         14          0          0          0       1228   pwm.o
       914         58          0          1         61       5486   remotecontrol.o
      2914        310          0         76          0       9729   shoot.o
       312         14          0          0          0       1341   spi.o
        64         26        428          0       5120        884   startup_stm32f427xx.o
      1870         48          0          0          0       8985   stm32f4xx_can.o
       696         68          0          0          0       6963   stm32f4xx_dma.o
       222          0          0          0          0       2911   stm32f4xx_gpio.o
       140         24          0          8          0       5590   stm32f4xx_it.o
       392         48          0         16          0       5829   stm32f4xx_rcc.o
       112          0          0          0          0       3526   stm32f4xx_spi.o
      1146        110          0          0          0       9662   stm32f4xx_tim.o
       662         42          0          0          0       5588   stm32f4xx_usart.o
       392         32          0         20          0      75317   system_stm32f4xx.o
       356         58          0         12          0       1946   timer.o
       340         26          0          6        200       4165   usart.o
      1864        172          0         90         36       5506   user_api.o

    ----------------------------------------------------------------------
     28852       2470       1288        648       7004     503660   Object Totals
         0          0         32          0          0          0   (incl. Generated)
        36          0          2          7          3          0   (incl. Padding)

    ----------------------------------------------------------------------

      Code (inc. data)   RO Data    RW Data    ZI Data      Debug   Library Member Name

        90          0          0          0          0          0   __dczerorl2.o
         8          0          0          0          0         68   __main.o
       104          0          0          0          0         84   __printf.o
         0          0          0          0          0          0   __rtentry.o
        12          0          0          0          0          0   __rtentry2.o
         6          0          0          0          0          0   __rtentry4.o
        52          8          0          0          0          0   __scatter.o
        28          0          0          0          0          0   __scatter_zi.o
        48          6          0          0          0         96   _printf_char_common.o
        36          4          0          0          0         80   _printf_char_file.o
         6          0          0          0          0          0   _printf_f.o
      1054          0          0          0          0        216   _printf_fp_dec.o
       128         16          0          0          0         84   _printf_fp_infnan.o
         0          0          0          0          0          0   _printf_percent.o
         4          0          0          0          0          0   _printf_percent_end.o
        22          0          0          0          0        100   _rserrno.o
       228          4        148          0          0         96   bigflt0.o
      1936        128          0          0          0        672   btod.o
        18          0          0          0          0         80   exit.o
         8          0          0          0          0         68   ferror.o
         6          0          0          0          0        152   heapauxi.o
        44         10         28          0          0         76   lc_numeric_c.o
         2          0          0          0          0          0   libinit.o
        22          0          0          0          0          0   libinit2.o
         2          0          0          0          0          0   libshutdown.o
         2          0          0          0          0          0   libshutdown2.o
         8          4          0          0         96         68   libspace.o
       138          0          0          0          0         80   lludiv10.o
        24          4          0          0          0         84   noretval__2printf.o
         8          4          0          0          0         68   rt_errno_addr_intlibspace.o
         8          4          0          0          0         68   rt_locale_intlibspace.o
       100          0          0          0          0         80   rt_memcpy_w.o
         2          0          0          0          0          0   rtexit.o
        10          0          0          0          0          0   rtexit2.o
       128          0          0          0          0         68   strcmpv7m.o
        74          0          0          0          0         80   sys_stackheap_outer.o
         2          0          0          0          0         68   use_no_semi.o
         2          0          0          0          0         68   use_no_semi_2.o
        24          0          0          0          0        164   basic.o
        98          4          0          0          0        140   d2f.o
       826         16          0          0          0        492   daddsub_clz.o
        24          0          0          0          0        116   dcmpi.o
       688        140          0          0          0        256   ddiv.o
       120          4          0          0          0        140   deqf.o
        94          4          0          0          0        140   dfix.o
        46          0          0          0          0        116   dflt_clz.o
       120          4          0          0          0        140   dleqf.o
       340         12          0          0          0        152   dmul.o
       156          4          0          0          0        140   dnaninf.o
        12          0          0          0          0        116   dretinf.o
       408         56          0          0          0        168   dsqrt_umaal.o
        86          4          0          0          0        132   f2d.o
       140          4          0          0          0        132   fnaninf.o
        10          0          0          0          0        116   fpinit.o
        10          0          0          0          0        116   fretinf.o
         4          0          0          0          0        116   printf1.o
         0          0          0          0          0          0   usenofp.o
       300         42          0          0          0        176   asinf.o
       744        106        152          0          0        352   atan.o
       512         64          0          0          0        208   atan2.o
       684         90          0          0          0        208   atan2f.o
       336         56          0          0          0        136   cosf.o
        72          8          0          0          0        372   dunder.o
        44          0          0          0          0        248   fabs.o
        48          0          0          0          0        124   fpclassify.o
        38          0          0          0          0        116   fpclassifyf.o
        44         12          0          0          0        464   funder.o
       248          0          0          0          0        152   poly.o
         0          0          8          0          0          0   qnan.o
       340         24         32          0          0        160   rredf.o
       400         56          0          0          0        212   sinf.o
       122          0          0          0          0        148   sqrt.o
        62          0          0          0          0        136   sqrtf.o
       380         58          0          0          0        200   tanf.o

    ----------------------------------------------------------------------
     11964        960        368          0        100       8908   Library Totals
        14          0          0          0          4          0   (incl. Padding)

    ----------------------------------------------------------------------

      Code (inc. data)   RO Data    RW Data    ZI Data      Debug   Library Name

      4370        192        176          0         96       2604   c_w.l
      3206        252          0          0          0       2892   fz_wm.l
      4374        516        192          0          0       3412   m_wm.l

    ----------------------------------------------------------------------
     11964        960        368          0        100       8908   Library Totals

    ----------------------------------------------------------------------

==============================================================================


      Code (inc. data)   RO Data    RW Data    ZI Data      Debug   

     40816       3430       1656        648       7104     491364   Grand Totals
     40816       3430       1656         76       7104     491364   ELF Image Totals (compressed)
     40816       3430       1656         76          0          0   ROM Totals

==============================================================================

    Total RO  Size (Code + RO Data)                42472 (  41.48kB)
    Total RW  Size (RW Data + ZI Data)              7752 (   7.57kB)
    Total ROM Size (Code + RO Data + RW Data)      42548 (  41.55kB)

==============================================================================

